	.file	"bn_asn1.c"
	.text
.Ltext0:
	.file 1 "/home/jdn/.cargo/registry/src/index.crates.io-1949cf8c6b5b557f/aws-lc-sys-0.40.0/aws-lc/crypto/bn_extra/bn_asn1.c"
	.section	.rodata
	.align 8
.LC0:
	.string	"/home/jdn/.cargo/registry/src/index.crates.io-1949cf8c6b5b557f/aws-lc-sys-0.40.0/aws-lc/crypto/bn_extra/bn_asn1.c"
	.section	.text.aws_lc_0_40_0_BN_parse_asn1_unsigned,"ax",@progbits
	.globl	aws_lc_0_40_0_BN_parse_asn1_unsigned
	.type	aws_lc_0_40_0_BN_parse_asn1_unsigned, @function
aws_lc_0_40_0_BN_parse_asn1_unsigned:
.LFB3:
	.loc 1 10 51
	.cfi_startproc
	endbr64
	pushq	%rbp
	.cfi_def_cfa_offset 16
	.cfi_offset 6, -16
	movq	%rsp, %rbp
	.cfi_def_cfa_register 6
	pushq	%rbx
	subq	$72, %rsp
	.cfi_offset 3, -24
	movq	%rdi, -72(%rbp)
	movq	%rsi, -80(%rbp)
	.loc 1 10 51
	movq	%fs:40, %rax
	movq	%rax, -24(%rbp)
	xorl	%eax, %eax
	.loc 1 13 8
	leaq	-48(%rbp), %rcx
	movq	-72(%rbp), %rax
	movl	$2, %edx
	movq	%rcx, %rsi
	movq	%rax, %rdi
	call	aws_lc_0_40_0_CBS_get_asn1@PLT
	.loc 1 13 6 discriminator 1
	testl	%eax, %eax
	je	.L2
	.loc 1 14 8
	leaq	-52(%rbp), %rdx
	leaq	-48(%rbp), %rax
	movq	%rdx, %rsi
	movq	%rax, %rdi
	call	aws_lc_0_40_0_CBS_is_valid_asn1_integer@PLT
	.loc 1 13 52 discriminator 2
	testl	%eax, %eax
	jne	.L3
.L2:
	.loc 1 15 5
	leaq	.LC0(%rip), %rax
	movl	$15, %r8d
	movq	%rax, %rcx
	movl	$117, %edx
	movl	$0, %esi
	movl	$3, %edi
	call	aws_lc_0_40_0_ERR_put_error@PLT
	.loc 1 16 12
	movl	$0, %eax
	jmp	.L6
.L3:
	.loc 1 19 7
	movl	-52(%rbp), %eax
	.loc 1 19 6
	testl	%eax, %eax
	je	.L5
	.loc 1 20 5
	leaq	.LC0(%rip), %rax
	movl	$20, %r8d
	movq	%rax, %rcx
	movl	$109, %edx
	movl	$0, %esi
	movl	$3, %edi
	call	aws_lc_0_40_0_ERR_put_error@PLT
	.loc 1 21 12
	movl	$0, %eax
	jmp	.L6
.L5:
	.loc 1 24 10
	leaq	-48(%rbp), %rax
	movq	%rax, %rdi
	call	aws_lc_0_40_0_CBS_len@PLT
	movq	%rax, %rbx
	.loc 1 24 10 is_stmt 0 discriminator 1
	leaq	-48(%rbp), %rax
	movq	%rax, %rdi
	call	aws_lc_0_40_0_CBS_data@PLT
	movq	%rax, %rcx
	.loc 1 24 10 discriminator 2
	movq	-80(%rbp), %rax
	movq	%rax, %rdx
	movq	%rbx, %rsi
	movq	%rcx, %rdi
	call	aws_lc_0_40_0_BN_bin2bn@PLT
	.loc 1 24 60 is_stmt 1 discriminator 3
	testq	%rax, %rax
	setne	%al
	movzbl	%al, %eax
.L6:
	.loc 1 25 1
	movq	-24(%rbp), %rdx
	subq	%fs:40, %rdx
	je	.L7
	call	__stack_chk_fail@PLT
.L7:
	movq	-8(%rbp), %rbx
	leave
	.cfi_def_cfa 7, 8
	ret
	.cfi_endproc
.LFE3:
	.size	aws_lc_0_40_0_BN_parse_asn1_unsigned, .-aws_lc_0_40_0_BN_parse_asn1_unsigned
	.section	.text.aws_lc_0_40_0_BN_marshal_asn1,"ax",@progbits
	.globl	aws_lc_0_40_0_BN_marshal_asn1
	.type	aws_lc_0_40_0_BN_marshal_asn1, @function
aws_lc_0_40_0_BN_marshal_asn1:
.LFB4:
	.loc 1 27 49
	.cfi_startproc
	endbr64
	pushq	%rbp
	.cfi_def_cfa_offset 16
	.cfi_offset 6, -16
	movq	%rsp, %rbp
	.cfi_def_cfa_register 6
	subq	$80, %rsp
	movq	%rdi, -72(%rbp)
	movq	%rsi, -80(%rbp)
	.loc 1 27 49
	movq	%fs:40, %rax
	movq	%rax, -8(%rbp)
	xorl	%eax, %eax
	.loc 1 29 7
	movq	-80(%rbp), %rax
	movq	%rax, %rdi
	call	aws_lc_0_40_0_BN_is_negative@PLT
	.loc 1 29 6 discriminator 1
	testl	%eax, %eax
	je	.L9
	.loc 1 30 5
	leaq	.LC0(%rip), %rax
	movl	$30, %r8d
	movq	%rax, %rcx
	movl	$109, %edx
	movl	$0, %esi
	movl	$3, %edi
	call	aws_lc_0_40_0_ERR_put_error@PLT
	.loc 1 31 12
	movl	$0, %eax
	jmp	.L14
.L9:
	.loc 1 35 8
	leaq	-64(%rbp), %rcx
	movq	-72(%rbp), %rax
	movl	$2, %edx
	movq	%rcx, %rsi
	movq	%rax, %rdi
	call	aws_lc_0_40_0_CBB_add_asn1@PLT
	.loc 1 35 6 discriminator 1
	testl	%eax, %eax
	je	.L11
	.loc 1 38 8
	movq	-80(%rbp), %rax
	movq	%rax, %rdi
	call	aws_lc_0_40_0_BN_num_bits@PLT
	.loc 1 38 24 discriminator 1
	andl	$7, %eax
	.loc 1 35 52 discriminator 2
	testl	%eax, %eax
	jne	.L12
	.loc 1 38 37
	leaq	-64(%rbp), %rax
	movl	$0, %esi
	movq	%rax, %rdi
	call	aws_lc_0_40_0_CBB_add_u8@PLT
	.loc 1 38 33 discriminator 2
	testl	%eax, %eax
	je	.L11
.L12:
	.loc 1 39 33
	movq	-80(%rbp), %rax
	movq	%rax, %rdi
	call	aws_lc_0_40_0_BN_num_bytes@PLT
	.loc 1 39 8 discriminator 1
	movl	%eax, %ecx
	movq	-80(%rbp), %rdx
	leaq	-64(%rbp), %rax
	movq	%rcx, %rsi
	movq	%rax, %rdi
	call	aws_lc_0_40_0_BN_bn2cbb_padded@PLT
	.loc 1 38 63 discriminator 3
	testl	%eax, %eax
	je	.L11
	.loc 1 40 8
	movq	-72(%rbp), %rax
	movq	%rax, %rdi
	call	aws_lc_0_40_0_CBB_flush@PLT
	.loc 1 39 55
	testl	%eax, %eax
	jne	.L13
.L11:
	.loc 1 41 5
	leaq	.LC0(%rip), %rax
	movl	$41, %r8d
	movq	%rax, %rcx
	movl	$118, %edx
	movl	$0, %esi
	movl	$3, %edi
	call	aws_lc_0_40_0_ERR_put_error@PLT
	.loc 1 42 12
	movl	$0, %eax
	jmp	.L14
.L13:
	.loc 1 45 10
	movl	$1, %eax
.L14:
	.loc 1 46 1
	movq	-8(%rbp), %rdx
	subq	%fs:40, %rdx
	je	.L15
	call	__stack_chk_fail@PLT
.L15:
	leave
	.cfi_def_cfa 7, 8
	ret
	.cfi_endproc
.LFE4:
	.size	aws_lc_0_40_0_BN_marshal_asn1, .-aws_lc_0_40_0_BN_marshal_asn1
	.text
.Letext0:
	.file 2 "/usr/lib/gcc/x86_64-linux-gnu/15/include/stddef.h"
	.file 3 "/usr/include/x86_64-linux-gnu/bits/types.h"
	.file 4 "/usr/include/x86_64-linux-gnu/bits/stdint-uintn.h"
	.file 5 "/home/jdn/.cargo/registry/src/index.crates.io-1949cf8c6b5b557f/aws-lc-sys-0.40.0/aws-lc/include/openssl/base.h"
	.file 6 "/home/jdn/.cargo/registry/src/index.crates.io-1949cf8c6b5b557f/aws-lc-sys-0.40.0/aws-lc/include/openssl/bn.h"
	.file 7 "/home/jdn/.cargo/registry/src/index.crates.io-1949cf8c6b5b557f/aws-lc-sys-0.40.0/aws-lc/include/openssl/bytestring.h"
	.file 8 "/home/jdn/.cargo/registry/src/index.crates.io-1949cf8c6b5b557f/aws-lc-sys-0.40.0/aws-lc/include/openssl/err.h"
	.section	.note.GNU-stack,"",@progbits
	.section	.note.gnu.property,"a"
	.align 8
	.long	1f - 0f
	.long	4f - 1f
	.long	5
0:
	.string	"GNU"
1:
	.align 8
	.long	0xc0000002
	.long	3f - 2f
2:
	.long	0x3
3:
	.align 8
4:
