	.file	"ocsp_lib.c"
	.text
.Ltext0:
	.file 0 "/mnt/HARDONE/NSI_Repos/tacvoice/service/target/debug/build/aws-lc-fips-sys-d437d42e962aa361/out/build/aws-lc/crypto" "/home/jdn/.cargo/registry/src/index.crates.io-1949cf8c6b5b557f/aws-lc-fips-sys-0.13.14/aws-lc/crypto/ocsp/ocsp_lib.c"
	.section	.rodata
	.align 8
.LC0:
	.string	"/home/jdn/.cargo/registry/src/index.crates.io-1949cf8c6b5b557f/aws-lc-fips-sys-0.13.14/aws-lc/crypto/ocsp/ocsp_lib.c"
	.section	.text.aws_lc_fips_0_13_14_OCSP_cert_to_id,"ax",@progbits
	.globl	aws_lc_fips_0_13_14_OCSP_cert_to_id
	.type	aws_lc_fips_0_13_14_OCSP_cert_to_id, @function
aws_lc_fips_0_13_14_OCSP_cert_to_id:
.LFB954:
	.file 1 "/home/jdn/.cargo/registry/src/index.crates.io-1949cf8c6b5b557f/aws-lc-fips-sys-0.13.14/aws-lc/crypto/ocsp/ocsp_lib.c"
	.loc 1 10 50
	.cfi_startproc
	endbr64
	pushq	%rbp
	.cfi_def_cfa_offset 16
	.cfi_offset 6, -16
	movq	%rsp, %rbp
	.cfi_def_cfa_register 6
	subq	$64, %rsp
	movq	%rdi, -40(%rbp)
	movq	%rsi, -48(%rbp)
	movq	%rdx, -56(%rbp)
	.loc 1 11 6
	cmpq	$0, -56(%rbp)
	jne	.L2
	.loc 1 12 5
	leaq	.LC0(%rip), %rax
	movl	$12, %r8d
	movq	%rax, %rcx
	movl	$67, %edx
	movl	$0, %esi
	movl	$23, %edi
	call	aws_lc_fips_0_13_14_ERR_put_error@PLT
	.loc 1 13 12
	movl	$0, %eax
	jmp	.L3
.L2:
	.loc 1 20 6
	cmpq	$0, -40(%rbp)
	jne	.L4
	.loc 1 21 12
	call	aws_lc_fips_0_13_14_EVP_sha1@PLT
	movq	%rax, -40(%rbp)
.L4:
	.loc 1 23 6
	cmpq	$0, -48(%rbp)
	je	.L5
	.loc 1 24 13
	movq	-48(%rbp), %rax
	movq	%rax, %rdi
	call	aws_lc_fips_0_13_14_X509_get_issuer_name@PLT
	movq	%rax, -24(%rbp)
	.loc 1 25 14
	movq	-48(%rbp), %rax
	movq	%rax, %rdi
	call	aws_lc_fips_0_13_14_X509_get0_serialNumber@PLT
	movq	%rax, -16(%rbp)
	jmp	.L6
.L5:
	.loc 1 27 13
	movq	-56(%rbp), %rax
	movq	%rax, %rdi
	call	aws_lc_fips_0_13_14_X509_get_subject_name@PLT
	movq	%rax, -24(%rbp)
	.loc 1 28 12
	movq	$0, -16(%rbp)
.L6:
	.loc 1 30 10
	movq	-56(%rbp), %rax
	movq	%rax, %rdi
	call	aws_lc_fips_0_13_14_X509_get0_pubkey_bitstr@PLT
	movq	%rax, -8(%rbp)
	.loc 1 31 10
	movq	-16(%rbp), %rcx
	movq	-8(%rbp), %rdx
	movq	-24(%rbp), %rsi
	movq	-40(%rbp), %rax
	movq	%rax, %rdi
	call	aws_lc_fips_0_13_14_OCSP_cert_id_new@PLT
.L3:
	.loc 1 32 1
	leave
	.cfi_def_cfa 7, 8
	ret
	.cfi_endproc
.LFE954:
	.size	aws_lc_fips_0_13_14_OCSP_cert_to_id, .-aws_lc_fips_0_13_14_OCSP_cert_to_id
	.section	.text.aws_lc_fips_0_13_14_OCSP_cert_id_new,"ax",@progbits
	.globl	aws_lc_fips_0_13_14_OCSP_cert_id_new
	.type	aws_lc_fips_0_13_14_OCSP_cert_id_new, @function
aws_lc_fips_0_13_14_OCSP_cert_id_new:
.LFB955:
	.loc 1 36 65
	.cfi_startproc
	endbr64
	pushq	%rbp
	.cfi_def_cfa_offset 16
	.cfi_offset 6, -16
	movq	%rsp, %rbp
	.cfi_def_cfa_register 6
	subq	$144, %rsp
	movq	%rdi, -120(%rbp)
	movq	%rsi, -128(%rbp)
	movq	%rdx, -136(%rbp)
	movq	%rcx, -144(%rbp)
	.loc 1 36 65
	movq	%fs:40, %rax
	movq	%rax, -8(%rbp)
	xorl	%eax, %eax
	.loc 1 37 6
	cmpq	$0, -120(%rbp)
	je	.L8
	.loc 1 37 20 discriminator 1
	cmpq	$0, -128(%rbp)
	je	.L8
	.loc 1 37 42 discriminator 2
	cmpq	$0, -136(%rbp)
	jne	.L9
.L8:
	.loc 1 38 5
	leaq	.LC0(%rip), %rax
	movl	$38, %r8d
	movq	%rax, %rcx
	movl	$67, %edx
	movl	$0, %esi
	movl	$23, %edi
	call	aws_lc_fips_0_13_14_ERR_put_error@PLT
	.loc 1 39 12
	movl	$0, %eax
	jmp	.L21
.L9:
	.loc 1 46 22
	call	aws_lc_fips_0_13_14_OCSP_CERTID_new@PLT
	movq	%rax, -96(%rbp)
	.loc 1 47 6
	cmpq	$0, -96(%rbp)
	jne	.L11
	.loc 1 48 12
	movl	$0, %eax
	jmp	.L21
.L11:
	.loc 1 51 7
	movq	-96(%rbp), %rax
	movq	(%rax), %rax
	movq	%rax, -88(%rbp)
	.loc 1 52 3
	movq	-88(%rbp), %rax
	movq	(%rax), %rax
	movq	%rax, %rdi
	call	aws_lc_fips_0_13_14_ASN1_OBJECT_free@PLT
	.loc 1 53 9
	movq	-120(%rbp), %rax
	movq	%rax, %rdi
	call	aws_lc_fips_0_13_14_EVP_MD_type@PLT
	movl	%eax, -100(%rbp)
	.loc 1 54 6
	cmpl	$0, -100(%rbp)
	jne	.L12
	.loc 1 55 5
	leaq	.LC0(%rip), %rax
	movl	$55, %r8d
	movq	%rax, %rcx
	movl	$120, %edx
	movl	$0, %esi
	movl	$23, %edi
	call	aws_lc_fips_0_13_14_ERR_put_error@PLT
	.loc 1 56 5
	jmp	.L13
.L12:
	.loc 1 58 20
	movl	-100(%rbp), %eax
	movl	%eax, %edi
	call	aws_lc_fips_0_13_14_OBJ_nid2obj@PLT
	.loc 1 58 18 discriminator 1
	movq	-88(%rbp), %rdx
	movq	%rax, (%rdx)
	.loc 1 59 10
	movq	-88(%rbp), %rax
	movq	(%rax), %rax
	.loc 1 59 6
	testq	%rax, %rax
	je	.L23
	.loc 1 62 20
	call	aws_lc_fips_0_13_14_ASN1_TYPE_new@PLT
	.loc 1 62 18 discriminator 1
	movq	-88(%rbp), %rdx
	movq	%rax, 8(%rdx)
	.loc 1 63 10
	movq	-88(%rbp), %rax
	movq	8(%rax), %rax
	.loc 1 63 6
	testq	%rax, %rax
	je	.L24
	.loc 1 66 6
	movq	-88(%rbp), %rax
	movq	8(%rax), %rax
	.loc 1 66 24
	movl	$5, (%rax)
	.loc 1 68 8
	leaq	-104(%rbp), %rcx
	leaq	-80(%rbp), %rdx
	movq	-120(%rbp), %rsi
	movq	-128(%rbp), %rax
	movq	%rax, %rdi
	call	aws_lc_fips_0_13_14_X509_NAME_digest@PLT
	.loc 1 68 6 discriminator 1
	testl	%eax, %eax
	jne	.L16
	.loc 1 69 5
	leaq	.LC0(%rip), %rax
	movl	$69, %r8d
	movq	%rax, %rcx
	movl	$102, %edx
	movl	$0, %esi
	movl	$23, %edi
	call	aws_lc_fips_0_13_14_ERR_put_error@PLT
	.loc 1 70 5
	jmp	.L13
.L16:
	.loc 1 72 9
	movl	-104(%rbp), %eax
	movl	%eax, %edx
	movq	-96(%rbp), %rax
	movq	8(%rax), %rax
	leaq	-80(%rbp), %rcx
	movq	%rcx, %rsi
	movq	%rax, %rdi
	call	aws_lc_fips_0_13_14_ASN1_OCTET_STRING_set@PLT
	.loc 1 72 6 discriminator 1
	testl	%eax, %eax
	je	.L25
	.loc 1 76 45
	movq	-136(%rbp), %rax
	movl	(%rax), %eax
	.loc 1 76 8
	movslq	%eax, %rsi
	.loc 1 76 28
	movq	-136(%rbp), %rax
	movq	8(%rax), %rax
	.loc 1 76 8
	movq	-120(%rbp), %rdi
	leaq	-104(%rbp), %rcx
	leaq	-80(%rbp), %rdx
	movl	$0, %r9d
	movq	%rdi, %r8
	movq	%rax, %rdi
	call	aws_lc_fips_0_13_14_EVP_Digest@PLT
	.loc 1 76 6 discriminator 1
	testl	%eax, %eax
	je	.L26
	.loc 1 79 9
	movl	-104(%rbp), %eax
	movl	%eax, %edx
	movq	-96(%rbp), %rax
	movq	16(%rax), %rax
	leaq	-80(%rbp), %rcx
	movq	%rcx, %rsi
	movq	%rax, %rdi
	call	aws_lc_fips_0_13_14_ASN1_OCTET_STRING_set@PLT
	.loc 1 79 6 discriminator 1
	testl	%eax, %eax
	je	.L27
	.loc 1 83 6
	cmpq	$0, -144(%rbp)
	je	.L20
	.loc 1 84 29
	movq	-96(%rbp), %rax
	movq	24(%rax), %rax
	.loc 1 84 9
	movq	-144(%rbp), %rdx
	movq	%rdx, %rsi
	movq	%rax, %rdi
	call	aws_lc_fips_0_13_14_ASN1_STRING_copy@PLT
	.loc 1 84 8 discriminator 1
	testl	%eax, %eax
	je	.L28
.L20:
	.loc 1 88 10
	movq	-96(%rbp), %rax
	jmp	.L21
.L23:
	.loc 1 60 5
	nop
	jmp	.L13
.L24:
	.loc 1 64 5
	nop
	jmp	.L13
.L25:
	.loc 1 73 5
	nop
	jmp	.L13
.L26:
	.loc 1 77 5
	nop
	jmp	.L13
.L27:
	.loc 1 80 5
	nop
	jmp	.L13
.L28:
	.loc 1 85 7
	nop
.L13:
	.loc 1 91 3
	movq	-96(%rbp), %rax
	movq	%rax, %rdi
	call	aws_lc_fips_0_13_14_OCSP_CERTID_free@PLT
	.loc 1 92 10
	movl	$0, %eax
.L21:
	.loc 1 93 1
	movq	-8(%rbp), %rdx
	subq	%fs:40, %rdx
	je	.L22
	call	__stack_chk_fail@PLT
.L22:
	leave
	.cfi_def_cfa 7, 8
	ret
	.cfi_endproc
.LFE955:
	.size	aws_lc_fips_0_13_14_OCSP_cert_id_new, .-aws_lc_fips_0_13_14_OCSP_cert_id_new
	.section	.text.aws_lc_fips_0_13_14_OCSP_id_issuer_cmp,"ax",@progbits
	.globl	aws_lc_fips_0_13_14_OCSP_id_issuer_cmp
	.type	aws_lc_fips_0_13_14_OCSP_id_issuer_cmp, @function
aws_lc_fips_0_13_14_OCSP_id_issuer_cmp:
.LFB956:
	.loc 1 95 68
	.cfi_startproc
	endbr64
	pushq	%rbp
	.cfi_def_cfa_offset 16
	.cfi_offset 6, -16
	movq	%rsp, %rbp
	.cfi_def_cfa_register 6
	subq	$32, %rsp
	movq	%rdi, -24(%rbp)
	movq	%rsi, -32(%rbp)
	.loc 1 96 6
	cmpq	$0, -24(%rbp)
	je	.L30
	.loc 1 96 17 discriminator 1
	cmpq	$0, -32(%rbp)
	jne	.L31
.L30:
	.loc 1 97 5
	leaq	.LC0(%rip), %rax
	movl	$97, %r8d
	movq	%rax, %rcx
	movl	$67, %edx
	movl	$0, %esi
	movl	$23, %edi
	call	aws_lc_fips_0_13_14_ERR_put_error@PLT
	.loc 1 98 12
	movl	$-1, %eax
	jmp	.L32
.L31:
	.loc 1 101 8
	movq	-24(%rbp), %rax
	movq	(%rax), %rax
	.loc 1 101 6
	testq	%rax, %rax
	je	.L33
	.loc 1 101 36 discriminator 1
	movq	-32(%rbp), %rax
	movq	(%rax), %rax
	.loc 1 101 32 discriminator 1
	testq	%rax, %rax
	jne	.L34
.L33:
	.loc 1 102 5
	leaq	.LC0(%rip), %rax
	movl	$102, %r8d
	movq	%rax, %rcx
	movl	$67, %edx
	movl	$0, %esi
	movl	$23, %edi
	call	aws_lc_fips_0_13_14_ERR_put_error@PLT
	.loc 1 103 12
	movl	$-1, %eax
	jmp	.L32
.L34:
	.loc 1 106 51
	movq	-32(%rbp), %rax
	movq	(%rax), %rax
	.loc 1 106 66
	movq	(%rax), %rdx
	.loc 1 106 22
	movq	-24(%rbp), %rax
	movq	(%rax), %rax
	.loc 1 106 37
	movq	(%rax), %rax
	.loc 1 106 13
	movq	%rdx, %rsi
	movq	%rax, %rdi
	call	aws_lc_fips_0_13_14_OBJ_cmp@PLT
	movl	%eax, -4(%rbp)
	.loc 1 107 6
	cmpl	$0, -4(%rbp)
	je	.L35
	.loc 1 108 12
	movl	-4(%rbp), %eax
	jmp	.L32
.L35:
	.loc 1 110 51
	movq	-32(%rbp), %rax
	movq	8(%rax), %rdx
	.loc 1 110 32
	movq	-24(%rbp), %rax
	movq	8(%rax), %rax
	.loc 1 110 9
	movq	%rdx, %rsi
	movq	%rax, %rdi
	call	aws_lc_fips_0_13_14_ASN1_OCTET_STRING_cmp@PLT
	movl	%eax, -4(%rbp)
	.loc 1 111 6
	cmpl	$0, -4(%rbp)
	je	.L36
	.loc 1 112 12
	movl	-4(%rbp), %eax
	jmp	.L32
.L36:
	.loc 1 114 50
	movq	-32(%rbp), %rax
	movq	16(%rax), %rdx
	.loc 1 114 32
	movq	-24(%rbp), %rax
	movq	16(%rax), %rax
	.loc 1 114 9
	movq	%rdx, %rsi
	movq	%rax, %rdi
	call	aws_lc_fips_0_13_14_ASN1_OCTET_STRING_cmp@PLT
	movl	%eax, -4(%rbp)
	.loc 1 115 10
	movl	-4(%rbp), %eax
.L32:
	.loc 1 116 1
	leave
	.cfi_def_cfa 7, 8
	ret
	.cfi_endproc
.LFE956:
	.size	aws_lc_fips_0_13_14_OCSP_id_issuer_cmp, .-aws_lc_fips_0_13_14_OCSP_id_issuer_cmp
	.section	.text.aws_lc_fips_0_13_14_OCSP_id_cmp,"ax",@progbits
	.globl	aws_lc_fips_0_13_14_OCSP_id_cmp
	.type	aws_lc_fips_0_13_14_OCSP_id_cmp, @function
aws_lc_fips_0_13_14_OCSP_id_cmp:
.LFB957:
	.loc 1 118 61
	.cfi_startproc
	endbr64
	pushq	%rbp
	.cfi_def_cfa_offset 16
	.cfi_offset 6, -16
	movq	%rsp, %rbp
	.cfi_def_cfa_register 6
	subq	$32, %rsp
	movq	%rdi, -24(%rbp)
	movq	%rsi, -32(%rbp)
	.loc 1 119 6
	cmpq	$0, -24(%rbp)
	je	.L38
	.loc 1 119 17 discriminator 1
	cmpq	$0, -32(%rbp)
	jne	.L39
.L38:
	.loc 1 120 5
	leaq	.LC0(%rip), %rax
	movl	$120, %r8d
	movq	%rax, %rcx
	movl	$67, %edx
	movl	$0, %esi
	movl	$23, %edi
	call	aws_lc_fips_0_13_14_ERR_put_error@PLT
	.loc 1 121 12
	movl	$-1, %eax
	jmp	.L40
.L39:
	.loc 1 125 13
	movq	-32(%rbp), %rdx
	movq	-24(%rbp), %rax
	movq	%rdx, %rsi
	movq	%rax, %rdi
	call	aws_lc_fips_0_13_14_OCSP_id_issuer_cmp@PLT
	movl	%eax, -4(%rbp)
	.loc 1 126 6
	cmpl	$0, -4(%rbp)
	je	.L41
	.loc 1 127 12
	movl	-4(%rbp), %eax
	jmp	.L40
.L41:
	.loc 1 130 44
	movq	-32(%rbp), %rax
	movq	24(%rax), %rdx
	.loc 1 130 27
	movq	-24(%rbp), %rax
	movq	24(%rax), %rax
	.loc 1 130 9
	movq	%rdx, %rsi
	movq	%rax, %rdi
	call	aws_lc_fips_0_13_14_ASN1_INTEGER_cmp@PLT
	movl	%eax, -4(%rbp)
	.loc 1 131 10
	movl	-4(%rbp), %eax
.L40:
	.loc 1 132 1
	leave
	.cfi_def_cfa 7, 8
	ret
	.cfi_endproc
.LFE957:
	.size	aws_lc_fips_0_13_14_OCSP_id_cmp, .-aws_lc_fips_0_13_14_OCSP_id_cmp
	.section	.rodata
.LC1:
	.string	"https"
.LC2:
	.string	"443"
.LC3:
	.string	"http"
.LC4:
	.string	"80"
.LC5:
	.string	"/"
	.section	.text.aws_lc_fips_0_13_14_OCSP_parse_url,"ax",@progbits
	.globl	aws_lc_fips_0_13_14_OCSP_parse_url
	.type	aws_lc_fips_0_13_14_OCSP_parse_url, @function
aws_lc_fips_0_13_14_OCSP_parse_url:
.LFB958:
	.loc 1 135 31
	.cfi_startproc
	endbr64
	pushq	%rbp
	.cfi_def_cfa_offset 16
	.cfi_offset 6, -16
	movq	%rsp, %rbp
	.cfi_def_cfa_register 6
	subq	$80, %rsp
	movq	%rdi, -40(%rbp)
	movq	%rsi, -48(%rbp)
	movq	%rdx, -56(%rbp)
	movq	%rcx, -64(%rbp)
	movq	%r8, -72(%rbp)
	.loc 1 136 6
	cmpq	$0, -40(%rbp)
	je	.L43
	.loc 1 136 19 discriminator 1
	cmpq	$0, -48(%rbp)
	je	.L43
	.loc 1 136 36 discriminator 2
	cmpq	$0, -56(%rbp)
	je	.L43
	.loc 1 136 53 discriminator 3
	cmpq	$0, -64(%rbp)
	je	.L43
	.loc 1 136 70 discriminator 4
	cmpq	$0, -72(%rbp)
	jne	.L44
.L43:
	.loc 1 138 5
	leaq	.LC0(%rip), %rax
	movl	$138, %r8d
	movq	%rax, %rcx
	movl	$67, %edx
	movl	$0, %esi
	movl	$23, %edi
	call	aws_lc_fips_0_13_14_ERR_put_error@PLT
	.loc 1 139 12
	movl	$0, %eax
	jmp	.L45
.L44:
	.loc 1 143 9
	movq	$0, -24(%rbp)
	.loc 1 144 9
	movq	$0, -16(%rbp)
	.loc 1 146 10
	movq	-48(%rbp), %rax
	movq	$0, (%rax)
	.loc 1 147 10
	movq	-56(%rbp), %rax
	movq	$0, (%rax)
	.loc 1 148 10
	movq	-64(%rbp), %rax
	movq	$0, (%rax)
	.loc 1 151 12
	movq	-40(%rbp), %rax
	movq	%rax, %rdi
	call	aws_lc_fips_0_13_14_OPENSSL_strdup@PLT
	movq	%rax, -8(%rbp)
	.loc 1 152 6
	cmpq	$0, -8(%rbp)
	je	.L64
	.loc 1 157 12
	movq	-8(%rbp), %rax
	movl	$58, %esi
	movq	%rax, %rdi
	call	strchr@PLT
	movq	%rax, -32(%rbp)
	.loc 1 158 6
	cmpq	$0, -32(%rbp)
	je	.L65
	.loc 1 161 11
	movq	-32(%rbp), %rax
	leaq	1(%rax), %rdx
	movq	%rdx, -32(%rbp)
	.loc 1 161 15
	movb	$0, (%rax)
	.loc 1 165 7
	leaq	.LC1(%rip), %rcx
	movq	-8(%rbp), %rax
	movl	$5, %edx
	movq	%rcx, %rsi
	movq	%rax, %rdi
	call	strncmp@PLT
	.loc 1 165 6 discriminator 1
	testl	%eax, %eax
	jne	.L50
	.loc 1 166 11
	movq	-72(%rbp), %rax
	movl	$1, (%rax)
	.loc 1 167 10
	leaq	.LC2(%rip), %rax
	movq	%rax, -16(%rbp)
	jmp	.L51
.L50:
	.loc 1 168 14
	leaq	.LC3(%rip), %rcx
	movq	-8(%rbp), %rax
	movl	$4, %edx
	movq	%rcx, %rsi
	movq	%rax, %rdi
	call	strncmp@PLT
	.loc 1 168 13 discriminator 1
	testl	%eax, %eax
	jne	.L66
	.loc 1 169 11
	movq	-72(%rbp), %rax
	movl	$0, (%rax)
	.loc 1 170 10
	leaq	.LC4(%rip), %rax
	movq	%rax, -16(%rbp)
.L51:
	.loc 1 176 14
	movq	-32(%rbp), %rax
	movzbl	(%rax), %eax
	.loc 1 176 6
	cmpb	$47, %al
	jne	.L67
	.loc 1 176 36 discriminator 1
	movq	-32(%rbp), %rax
	addq	$1, %rax
	movzbl	(%rax), %eax
	.loc 1 176 26 discriminator 1
	cmpb	$47, %al
	jne	.L67
	.loc 1 179 10
	addq	$2, -32(%rbp)
	.loc 1 180 8
	movq	-32(%rbp), %rax
	movq	%rax, -24(%rbp)
	.loc 1 183 12
	movq	-32(%rbp), %rax
	movl	$47, %esi
	movq	%rax, %rdi
	call	strchr@PLT
	movq	%rax, -32(%rbp)
	.loc 1 184 6
	cmpq	$0, -32(%rbp)
	jne	.L55
	.loc 1 186 14
	leaq	.LC5(%rip), %rax
	movq	%rax, %rdi
	call	aws_lc_fips_0_13_14_OPENSSL_strdup@PLT
	.loc 1 186 12 discriminator 1
	movq	-64(%rbp), %rdx
	movq	%rax, (%rdx)
	jmp	.L56
.L55:
	.loc 1 188 14
	movq	-32(%rbp), %rax
	movq	%rax, %rdi
	call	aws_lc_fips_0_13_14_OPENSSL_strdup@PLT
	.loc 1 188 12 discriminator 1
	movq	-64(%rbp), %rdx
	movq	%rax, (%rdx)
	.loc 1 190 13
	movq	-32(%rbp), %rax
	movb	$0, (%rax)
.L56:
	.loc 1 192 7
	movq	-64(%rbp), %rax
	movq	(%rax), %rax
	.loc 1 192 6
	testq	%rax, %rax
	je	.L68
	.loc 1 196 10
	movq	-24(%rbp), %rax
	movq	%rax, -32(%rbp)
	.loc 1 198 11
	movq	-24(%rbp), %rax
	movzbl	(%rax), %eax
	.loc 1 198 6
	cmpb	$91, %al
	jne	.L58
	.loc 1 199 9
	addq	$1, -24(%rbp)
	.loc 1 200 14
	movq	-24(%rbp), %rax
	movl	$93, %esi
	movq	%rax, %rdi
	call	strchr@PLT
	movq	%rax, -32(%rbp)
	.loc 1 201 8
	cmpq	$0, -32(%rbp)
	je	.L69
	.loc 1 204 13
	movq	-32(%rbp), %rax
	movb	$0, (%rax)
	.loc 1 205 11
	addq	$1, -32(%rbp)
.L58:
	.loc 1 209 17
	movq	-32(%rbp), %rax
	movl	$58, %esi
	movq	%rax, %rdi
	call	strchr@PLT
	movq	%rax, -32(%rbp)
	.loc 1 209 6 discriminator 1
	cmpq	$0, -32(%rbp)
	je	.L60
	.loc 1 210 13
	movq	-32(%rbp), %rax
	movb	$0, (%rax)
	.loc 1 211 10
	movq	-32(%rbp), %rax
	addq	$1, %rax
	movq	%rax, -16(%rbp)
.L60:
	.loc 1 214 12
	movq	-16(%rbp), %rax
	movq	%rax, %rdi
	call	aws_lc_fips_0_13_14_OPENSSL_strdup@PLT
	.loc 1 214 10 discriminator 1
	movq	-56(%rbp), %rdx
	movq	%rax, (%rdx)
	.loc 1 215 7
	movq	-56(%rbp), %rax
	movq	(%rax), %rax
	.loc 1 215 6
	testq	%rax, %rax
	je	.L70
	.loc 1 219 12
	movq	-24(%rbp), %rax
	movq	%rax, %rdi
	call	aws_lc_fips_0_13_14_OPENSSL_strdup@PLT
	.loc 1 219 10 discriminator 1
	movq	-48(%rbp), %rdx
	movq	%rax, (%rdx)
	.loc 1 220 7
	movq	-48(%rbp), %rax
	movq	(%rax), %rax
	.loc 1 220 6
	testq	%rax, %rax
	je	.L71
	.loc 1 223 3
	movq	-8(%rbp), %rax
	movq	%rax, %rdi
	call	aws_lc_fips_0_13_14_OPENSSL_free@PLT
	.loc 1 224 10
	movl	$1, %eax
	jmp	.L45
.L64:
	.loc 1 153 5
	nop
	jmp	.L47
.L68:
	.loc 1 193 5
	nop
	jmp	.L47
.L70:
	.loc 1 216 5
	nop
	jmp	.L47
.L71:
	.loc 1 221 5
	nop
.L47:
	.loc 1 227 3
	leaq	.LC0(%rip), %rax
	movl	$227, %r8d
	movq	%rax, %rcx
	movl	$65, %edx
	movl	$0, %esi
	movl	$23, %edi
	call	aws_lc_fips_0_13_14_ERR_put_error@PLT
	.loc 1 228 3
	jmp	.L63
.L65:
	.loc 1 159 5
	nop
	jmp	.L49
.L66:
	.loc 1 172 5
	nop
	jmp	.L49
.L67:
	.loc 1 177 5
	nop
	jmp	.L49
.L69:
	.loc 1 202 7
	nop
.L49:
	.loc 1 230 3
	leaq	.LC0(%rip), %rax
	movl	$230, %r8d
	movq	%rax, %rcx
	movl	$121, %edx
	movl	$0, %esi
	movl	$23, %edi
	call	aws_lc_fips_0_13_14_ERR_put_error@PLT
.L63:
	.loc 1 232 3
	movq	-8(%rbp), %rax
	movq	%rax, %rdi
	call	aws_lc_fips_0_13_14_OPENSSL_free@PLT
	.loc 1 233 3
	movq	-64(%rbp), %rax
	movq	(%rax), %rax
	movq	%rax, %rdi
	call	aws_lc_fips_0_13_14_OPENSSL_free@PLT
	.loc 1 234 10
	movq	-64(%rbp), %rax
	movq	$0, (%rax)
	.loc 1 235 3
	movq	-56(%rbp), %rax
	movq	(%rax), %rax
	movq	%rax, %rdi
	call	aws_lc_fips_0_13_14_OPENSSL_free@PLT
	.loc 1 236 10
	movq	-56(%rbp), %rax
	movq	$0, (%rax)
	.loc 1 237 3
	movq	-48(%rbp), %rax
	movq	(%rax), %rax
	movq	%rax, %rdi
	call	aws_lc_fips_0_13_14_OPENSSL_free@PLT
	.loc 1 238 10
	movq	-48(%rbp), %rax
	movq	$0, (%rax)
	.loc 1 239 10
	movl	$0, %eax
.L45:
	.loc 1 240 1
	leave
	.cfi_def_cfa 7, 8
	ret
	.cfi_endproc
.LFE958:
	.size	aws_lc_fips_0_13_14_OCSP_parse_url, .-aws_lc_fips_0_13_14_OCSP_parse_url
	.text
.Letext0:
	.file 2 "/usr/lib/gcc/x86_64-linux-gnu/15/include/stddef.h"
	.file 3 "/usr/include/x86_64-linux-gnu/bits/types.h"
	.file 4 "/usr/include/x86_64-linux-gnu/bits/stdint-uintn.h"
	.file 5 "/home/jdn/.cargo/registry/src/index.crates.io-1949cf8c6b5b557f/aws-lc-fips-sys-0.13.14/aws-lc/include/openssl/base.h"
	.file 6 "/home/jdn/.cargo/registry/src/index.crates.io-1949cf8c6b5b557f/aws-lc-fips-sys-0.13.14/aws-lc/include/openssl/asn1.h"
	.file 7 "/home/jdn/.cargo/registry/src/index.crates.io-1949cf8c6b5b557f/aws-lc-fips-sys-0.13.14/aws-lc/include/openssl/x509.h"
	.file 8 "/home/jdn/.cargo/registry/src/index.crates.io-1949cf8c6b5b557f/aws-lc-fips-sys-0.13.14/aws-lc/include/openssl/ocsp.h"
	.file 9 "/home/jdn/.cargo/registry/src/index.crates.io-1949cf8c6b5b557f/aws-lc-fips-sys-0.13.14/aws-lc/crypto/ocsp/internal.h"
	.file 10 "/usr/include/string.h"
	.file 11 "/home/jdn/.cargo/registry/src/index.crates.io-1949cf8c6b5b557f/aws-lc-fips-sys-0.13.14/aws-lc/include/openssl/mem.h"
	.file 12 "/home/jdn/.cargo/registry/src/index.crates.io-1949cf8c6b5b557f/aws-lc-fips-sys-0.13.14/aws-lc/include/openssl/obj.h"
	.file 13 "/home/jdn/.cargo/registry/src/index.crates.io-1949cf8c6b5b557f/aws-lc-fips-sys-0.13.14/aws-lc/include/openssl/digest.h"
	.file 14 "/home/jdn/.cargo/registry/src/index.crates.io-1949cf8c6b5b557f/aws-lc-fips-sys-0.13.14/aws-lc/include/openssl/err.h"
	.section	.note.GNU-stack,"",@progbits
	.section	.note.gnu.property,"a"
	.align 8
	.long	1f - 0f
	.long	4f - 1f
	.long	5
0:
	.string	"GNU"
1:
	.align 8
	.long	0xc0000002
	.long	3f - 2f
2:
	.long	0x3
3:
	.align 8
4:
