	.file	"ocsp_asn.c"
	.text
.Ltext0:
	.file 0 "/mnt/HARDONE/NSI_Repos/tacvoice/service/target/debug/build/aws-lc-fips-sys-d437d42e962aa361/out/build/aws-lc/crypto" "/home/jdn/.cargo/registry/src/index.crates.io-1949cf8c6b5b557f/aws-lc-fips-sys-0.13.14/aws-lc/crypto/ocsp/ocsp_asn.c"
	.section	.rodata
.LC0:
	.string	"signatureAlgorithm"
.LC1:
	.string	"signature"
.LC2:
	.string	"certs"
	.section	.data.rel.ro.OCSP_SIGNATURE_seq_tt,"aw"
	.align 32
	.type	OCSP_SIGNATURE_seq_tt, @object
	.size	OCSP_SIGNATURE_seq_tt, 96
OCSP_SIGNATURE_seq_tt:
	.long	0
	.long	0
	.quad	0
	.quad	.LC0
	.quad	aws_lc_fips_0_13_14_X509_ALGOR_it
	.long	0
	.long	0
	.quad	8
	.quad	.LC1
	.quad	aws_lc_fips_0_13_14_ASN1_BIT_STRING_it
	.long	149
	.long	0
	.quad	16
	.quad	.LC2
	.quad	aws_lc_fips_0_13_14_X509_it
	.globl	aws_lc_fips_0_13_14_OCSP_SIGNATURE_it
	.section	.rodata
.LC3:
	.string	"OCSP_SIGNATURE"
	.section	.data.rel.ro.local.aws_lc_fips_0_13_14_OCSP_SIGNATURE_it,"aw"
	.align 32
	.type	aws_lc_fips_0_13_14_OCSP_SIGNATURE_it, @object
	.size	aws_lc_fips_0_13_14_OCSP_SIGNATURE_it, 48
aws_lc_fips_0_13_14_OCSP_SIGNATURE_it:
	.byte	1
	.zero	3
	.long	16
	.quad	OCSP_SIGNATURE_seq_tt
	.quad	3
	.quad	0
	.quad	24
	.quad	.LC3
	.section	.rodata
.LC4:
	.string	"hashAlgorithm"
.LC5:
	.string	"issuerNameHash"
.LC6:
	.string	"issuerKeyHash"
.LC7:
	.string	"serialNumber"
	.section	.data.rel.ro.OCSP_CERTID_seq_tt,"aw"
	.align 32
	.type	OCSP_CERTID_seq_tt, @object
	.size	OCSP_CERTID_seq_tt, 128
OCSP_CERTID_seq_tt:
	.long	0
	.long	0
	.quad	0
	.quad	.LC4
	.quad	aws_lc_fips_0_13_14_X509_ALGOR_it
	.long	0
	.long	0
	.quad	8
	.quad	.LC5
	.quad	aws_lc_fips_0_13_14_ASN1_OCTET_STRING_it
	.long	0
	.long	0
	.quad	16
	.quad	.LC6
	.quad	aws_lc_fips_0_13_14_ASN1_OCTET_STRING_it
	.long	0
	.long	0
	.quad	24
	.quad	.LC7
	.quad	aws_lc_fips_0_13_14_ASN1_INTEGER_it
	.globl	aws_lc_fips_0_13_14_OCSP_CERTID_it
	.section	.rodata
.LC8:
	.string	"OCSP_CERTID"
	.section	.data.rel.ro.local.aws_lc_fips_0_13_14_OCSP_CERTID_it,"aw"
	.align 32
	.type	aws_lc_fips_0_13_14_OCSP_CERTID_it, @object
	.size	aws_lc_fips_0_13_14_OCSP_CERTID_it, 48
aws_lc_fips_0_13_14_OCSP_CERTID_it:
	.byte	1
	.zero	3
	.long	16
	.quad	OCSP_CERTID_seq_tt
	.quad	4
	.quad	0
	.quad	32
	.quad	.LC8
	.section	.rodata
.LC9:
	.string	"reqCert"
.LC10:
	.string	"singleRequestExtensions"
	.section	.data.rel.ro.OCSP_ONEREQ_seq_tt,"aw"
	.align 32
	.type	OCSP_ONEREQ_seq_tt, @object
	.size	OCSP_ONEREQ_seq_tt, 64
OCSP_ONEREQ_seq_tt:
	.long	0
	.long	0
	.quad	0
	.quad	.LC9
	.quad	aws_lc_fips_0_13_14_OCSP_CERTID_it
	.long	149
	.long	0
	.quad	8
	.quad	.LC10
	.quad	aws_lc_fips_0_13_14_X509_EXTENSION_it
	.globl	aws_lc_fips_0_13_14_OCSP_ONEREQ_it
	.section	.rodata
.LC11:
	.string	"OCSP_ONEREQ"
	.section	.data.rel.ro.local.aws_lc_fips_0_13_14_OCSP_ONEREQ_it,"aw"
	.align 32
	.type	aws_lc_fips_0_13_14_OCSP_ONEREQ_it, @object
	.size	aws_lc_fips_0_13_14_OCSP_ONEREQ_it, 48
aws_lc_fips_0_13_14_OCSP_ONEREQ_it:
	.byte	1
	.zero	3
	.long	16
	.quad	OCSP_ONEREQ_seq_tt
	.quad	2
	.quad	0
	.quad	16
	.quad	.LC11
	.section	.rodata
.LC12:
	.string	"version"
.LC13:
	.string	"requestorName"
.LC14:
	.string	"requestList"
.LC15:
	.string	"requestExtensions"
	.section	.data.rel.ro.OCSP_REQINFO_seq_tt,"aw"
	.align 32
	.type	OCSP_REQINFO_seq_tt, @object
	.size	OCSP_REQINFO_seq_tt, 128
OCSP_REQINFO_seq_tt:
	.long	145
	.long	0
	.quad	0
	.quad	.LC12
	.quad	aws_lc_fips_0_13_14_ASN1_INTEGER_it
	.long	145
	.long	1
	.quad	8
	.quad	.LC13
	.quad	aws_lc_fips_0_13_14_GENERAL_NAME_it
	.long	4
	.long	0
	.quad	16
	.quad	.LC14
	.quad	aws_lc_fips_0_13_14_OCSP_ONEREQ_it
	.long	149
	.long	2
	.quad	24
	.quad	.LC15
	.quad	aws_lc_fips_0_13_14_X509_EXTENSION_it
	.globl	aws_lc_fips_0_13_14_OCSP_REQINFO_it
	.section	.rodata
.LC16:
	.string	"OCSP_REQINFO"
	.section	.data.rel.ro.local.aws_lc_fips_0_13_14_OCSP_REQINFO_it,"aw"
	.align 32
	.type	aws_lc_fips_0_13_14_OCSP_REQINFO_it, @object
	.size	aws_lc_fips_0_13_14_OCSP_REQINFO_it, 48
aws_lc_fips_0_13_14_OCSP_REQINFO_it:
	.byte	1
	.zero	3
	.long	16
	.quad	OCSP_REQINFO_seq_tt
	.quad	4
	.quad	0
	.quad	32
	.quad	.LC16
	.section	.rodata
.LC17:
	.string	"tbsRequest"
.LC18:
	.string	"optionalSignature"
	.section	.data.rel.ro.OCSP_REQUEST_seq_tt,"aw"
	.align 32
	.type	OCSP_REQUEST_seq_tt, @object
	.size	OCSP_REQUEST_seq_tt, 64
OCSP_REQUEST_seq_tt:
	.long	0
	.long	0
	.quad	0
	.quad	.LC17
	.quad	aws_lc_fips_0_13_14_OCSP_REQINFO_it
	.long	145
	.long	0
	.quad	8
	.quad	.LC18
	.quad	aws_lc_fips_0_13_14_OCSP_SIGNATURE_it
	.globl	aws_lc_fips_0_13_14_OCSP_REQUEST_it
	.section	.rodata
.LC19:
	.string	"OCSP_REQUEST"
	.section	.data.rel.ro.local.aws_lc_fips_0_13_14_OCSP_REQUEST_it,"aw"
	.align 32
	.type	aws_lc_fips_0_13_14_OCSP_REQUEST_it, @object
	.size	aws_lc_fips_0_13_14_OCSP_REQUEST_it, 48
aws_lc_fips_0_13_14_OCSP_REQUEST_it:
	.byte	1
	.zero	3
	.long	16
	.quad	OCSP_REQUEST_seq_tt
	.quad	2
	.quad	0
	.quad	16
	.quad	.LC19
	.section	.rodata
.LC20:
	.string	"responseType"
.LC21:
	.string	"response"
	.section	.data.rel.ro.OCSP_RESPBYTES_seq_tt,"aw"
	.align 32
	.type	OCSP_RESPBYTES_seq_tt, @object
	.size	OCSP_RESPBYTES_seq_tt, 64
OCSP_RESPBYTES_seq_tt:
	.long	0
	.long	0
	.quad	0
	.quad	.LC20
	.quad	aws_lc_fips_0_13_14_ASN1_OBJECT_it
	.long	0
	.long	0
	.quad	8
	.quad	.LC21
	.quad	aws_lc_fips_0_13_14_ASN1_OCTET_STRING_it
	.globl	aws_lc_fips_0_13_14_OCSP_RESPBYTES_it
	.section	.rodata
.LC22:
	.string	"OCSP_RESPBYTES"
	.section	.data.rel.ro.local.aws_lc_fips_0_13_14_OCSP_RESPBYTES_it,"aw"
	.align 32
	.type	aws_lc_fips_0_13_14_OCSP_RESPBYTES_it, @object
	.size	aws_lc_fips_0_13_14_OCSP_RESPBYTES_it, 48
aws_lc_fips_0_13_14_OCSP_RESPBYTES_it:
	.byte	1
	.zero	3
	.long	16
	.quad	OCSP_RESPBYTES_seq_tt
	.quad	2
	.quad	0
	.quad	16
	.quad	.LC22
	.section	.rodata
.LC23:
	.string	"responseStatus"
.LC24:
	.string	"responseBytes"
	.section	.data.rel.ro.OCSP_RESPONSE_seq_tt,"aw"
	.align 32
	.type	OCSP_RESPONSE_seq_tt, @object
	.size	OCSP_RESPONSE_seq_tt, 64
OCSP_RESPONSE_seq_tt:
	.long	0
	.long	0
	.quad	0
	.quad	.LC23
	.quad	aws_lc_fips_0_13_14_ASN1_ENUMERATED_it
	.long	145
	.long	0
	.quad	8
	.quad	.LC24
	.quad	aws_lc_fips_0_13_14_OCSP_RESPBYTES_it
	.globl	aws_lc_fips_0_13_14_OCSP_RESPONSE_it
	.section	.rodata
.LC25:
	.string	"OCSP_RESPONSE"
	.section	.data.rel.ro.local.aws_lc_fips_0_13_14_OCSP_RESPONSE_it,"aw"
	.align 32
	.type	aws_lc_fips_0_13_14_OCSP_RESPONSE_it, @object
	.size	aws_lc_fips_0_13_14_OCSP_RESPONSE_it, 48
aws_lc_fips_0_13_14_OCSP_RESPONSE_it:
	.byte	1
	.zero	3
	.long	16
	.quad	OCSP_RESPONSE_seq_tt
	.quad	2
	.quad	0
	.quad	16
	.quad	.LC25
	.section	.rodata
.LC26:
	.string	"value.byName"
.LC27:
	.string	"value.byKey"
	.section	.data.rel.ro.OCSP_RESPID_ch_tt,"aw"
	.align 32
	.type	OCSP_RESPID_ch_tt, @object
	.size	OCSP_RESPID_ch_tt, 64
OCSP_RESPID_ch_tt:
	.long	144
	.long	1
	.quad	8
	.quad	.LC26
	.quad	aws_lc_fips_0_13_14_X509_NAME_it
	.long	144
	.long	2
	.quad	8
	.quad	.LC27
	.quad	aws_lc_fips_0_13_14_ASN1_OCTET_STRING_it
	.hidden	aws_lc_fips_0_13_14_OCSP_RESPID_it
	.globl	aws_lc_fips_0_13_14_OCSP_RESPID_it
	.section	.rodata
.LC28:
	.string	"OCSP_RESPID"
	.section	.data.rel.ro.local.aws_lc_fips_0_13_14_OCSP_RESPID_it,"aw"
	.align 32
	.type	aws_lc_fips_0_13_14_OCSP_RESPID_it, @object
	.size	aws_lc_fips_0_13_14_OCSP_RESPID_it, 48
aws_lc_fips_0_13_14_OCSP_RESPID_it:
	.byte	2
	.zero	3
	.long	0
	.quad	OCSP_RESPID_ch_tt
	.quad	2
	.quad	0
	.quad	16
	.quad	.LC28
	.section	.rodata
.LC29:
	.string	"revocationTime"
.LC30:
	.string	"revocationReason"
	.section	.data.rel.ro.OCSP_REVOKEDINFO_seq_tt,"aw"
	.align 32
	.type	OCSP_REVOKEDINFO_seq_tt, @object
	.size	OCSP_REVOKEDINFO_seq_tt, 64
OCSP_REVOKEDINFO_seq_tt:
	.long	0
	.long	0
	.quad	0
	.quad	.LC29
	.quad	aws_lc_fips_0_13_14_ASN1_GENERALIZEDTIME_it
	.long	145
	.long	0
	.quad	8
	.quad	.LC30
	.quad	aws_lc_fips_0_13_14_ASN1_ENUMERATED_it
	.globl	aws_lc_fips_0_13_14_OCSP_REVOKEDINFO_it
	.section	.rodata
.LC31:
	.string	"OCSP_REVOKEDINFO"
	.section	.data.rel.ro.local.aws_lc_fips_0_13_14_OCSP_REVOKEDINFO_it,"aw"
	.align 32
	.type	aws_lc_fips_0_13_14_OCSP_REVOKEDINFO_it, @object
	.size	aws_lc_fips_0_13_14_OCSP_REVOKEDINFO_it, 48
aws_lc_fips_0_13_14_OCSP_REVOKEDINFO_it:
	.byte	1
	.zero	3
	.long	16
	.quad	OCSP_REVOKEDINFO_seq_tt
	.quad	2
	.quad	0
	.quad	16
	.quad	.LC31
	.section	.rodata
.LC32:
	.string	"value.good"
.LC33:
	.string	"value.revoked"
.LC34:
	.string	"value.unknown"
	.section	.data.rel.ro.OCSP_CERTSTATUS_ch_tt,"aw"
	.align 32
	.type	OCSP_CERTSTATUS_ch_tt, @object
	.size	OCSP_CERTSTATUS_ch_tt, 96
OCSP_CERTSTATUS_ch_tt:
	.long	136
	.long	0
	.quad	8
	.quad	.LC32
	.quad	aws_lc_fips_0_13_14_ASN1_NULL_it
	.long	136
	.long	1
	.quad	8
	.quad	.LC33
	.quad	aws_lc_fips_0_13_14_OCSP_REVOKEDINFO_it
	.long	136
	.long	2
	.quad	8
	.quad	.LC34
	.quad	aws_lc_fips_0_13_14_ASN1_NULL_it
	.hidden	aws_lc_fips_0_13_14_OCSP_CERTSTATUS_it
	.globl	aws_lc_fips_0_13_14_OCSP_CERTSTATUS_it
	.section	.rodata
.LC35:
	.string	"OCSP_CERTSTATUS"
	.section	.data.rel.ro.local.aws_lc_fips_0_13_14_OCSP_CERTSTATUS_it,"aw"
	.align 32
	.type	aws_lc_fips_0_13_14_OCSP_CERTSTATUS_it, @object
	.size	aws_lc_fips_0_13_14_OCSP_CERTSTATUS_it, 48
aws_lc_fips_0_13_14_OCSP_CERTSTATUS_it:
	.byte	2
	.zero	3
	.long	0
	.quad	OCSP_CERTSTATUS_ch_tt
	.quad	3
	.quad	0
	.quad	16
	.quad	.LC35
	.section	.rodata
.LC36:
	.string	"certId"
.LC37:
	.string	"certStatus"
.LC38:
	.string	"thisUpdate"
.LC39:
	.string	"nextUpdate"
.LC40:
	.string	"singleExtensions"
	.section	.data.rel.ro.OCSP_SINGLERESP_seq_tt,"aw"
	.align 32
	.type	OCSP_SINGLERESP_seq_tt, @object
	.size	OCSP_SINGLERESP_seq_tt, 160
OCSP_SINGLERESP_seq_tt:
	.long	0
	.long	0
	.quad	0
	.quad	.LC36
	.quad	aws_lc_fips_0_13_14_OCSP_CERTID_it
	.long	0
	.long	0
	.quad	8
	.quad	.LC37
	.quad	aws_lc_fips_0_13_14_OCSP_CERTSTATUS_it
	.long	0
	.long	0
	.quad	16
	.quad	.LC38
	.quad	aws_lc_fips_0_13_14_ASN1_GENERALIZEDTIME_it
	.long	145
	.long	0
	.quad	24
	.quad	.LC39
	.quad	aws_lc_fips_0_13_14_ASN1_GENERALIZEDTIME_it
	.long	149
	.long	1
	.quad	32
	.quad	.LC40
	.quad	aws_lc_fips_0_13_14_X509_EXTENSION_it
	.globl	aws_lc_fips_0_13_14_OCSP_SINGLERESP_it
	.section	.rodata
.LC41:
	.string	"OCSP_SINGLERESP"
	.section	.data.rel.ro.local.aws_lc_fips_0_13_14_OCSP_SINGLERESP_it,"aw"
	.align 32
	.type	aws_lc_fips_0_13_14_OCSP_SINGLERESP_it, @object
	.size	aws_lc_fips_0_13_14_OCSP_SINGLERESP_it, 48
aws_lc_fips_0_13_14_OCSP_SINGLERESP_it:
	.byte	1
	.zero	3
	.long	16
	.quad	OCSP_SINGLERESP_seq_tt
	.quad	5
	.quad	0
	.quad	40
	.quad	.LC41
	.section	.rodata
.LC42:
	.string	"responderId"
.LC43:
	.string	"producedAt"
.LC44:
	.string	"responses"
.LC45:
	.string	"responseExtensions"
	.section	.data.rel.ro.OCSP_RESPDATA_seq_tt,"aw"
	.align 32
	.type	OCSP_RESPDATA_seq_tt, @object
	.size	OCSP_RESPDATA_seq_tt, 160
OCSP_RESPDATA_seq_tt:
	.long	145
	.long	0
	.quad	0
	.quad	.LC12
	.quad	aws_lc_fips_0_13_14_ASN1_INTEGER_it
	.long	0
	.long	0
	.quad	8
	.quad	.LC42
	.quad	aws_lc_fips_0_13_14_OCSP_RESPID_it
	.long	0
	.long	0
	.quad	16
	.quad	.LC43
	.quad	aws_lc_fips_0_13_14_ASN1_GENERALIZEDTIME_it
	.long	4
	.long	0
	.quad	24
	.quad	.LC44
	.quad	aws_lc_fips_0_13_14_OCSP_SINGLERESP_it
	.long	149
	.long	1
	.quad	32
	.quad	.LC45
	.quad	aws_lc_fips_0_13_14_X509_EXTENSION_it
	.globl	aws_lc_fips_0_13_14_OCSP_RESPDATA_it
	.section	.rodata
.LC46:
	.string	"OCSP_RESPDATA"
	.section	.data.rel.ro.local.aws_lc_fips_0_13_14_OCSP_RESPDATA_it,"aw"
	.align 32
	.type	aws_lc_fips_0_13_14_OCSP_RESPDATA_it, @object
	.size	aws_lc_fips_0_13_14_OCSP_RESPDATA_it, 48
aws_lc_fips_0_13_14_OCSP_RESPDATA_it:
	.byte	1
	.zero	3
	.long	16
	.quad	OCSP_RESPDATA_seq_tt
	.quad	5
	.quad	0
	.quad	40
	.quad	.LC46
	.section	.rodata
.LC47:
	.string	"tbsResponseData"
	.section	.data.rel.ro.OCSP_BASICRESP_seq_tt,"aw"
	.align 32
	.type	OCSP_BASICRESP_seq_tt, @object
	.size	OCSP_BASICRESP_seq_tt, 128
OCSP_BASICRESP_seq_tt:
	.long	0
	.long	0
	.quad	0
	.quad	.LC47
	.quad	aws_lc_fips_0_13_14_OCSP_RESPDATA_it
	.long	0
	.long	0
	.quad	8
	.quad	.LC0
	.quad	aws_lc_fips_0_13_14_X509_ALGOR_it
	.long	0
	.long	0
	.quad	16
	.quad	.LC1
	.quad	aws_lc_fips_0_13_14_ASN1_BIT_STRING_it
	.long	149
	.long	0
	.quad	24
	.quad	.LC2
	.quad	aws_lc_fips_0_13_14_X509_it
	.globl	aws_lc_fips_0_13_14_OCSP_BASICRESP_it
	.section	.rodata
.LC48:
	.string	"OCSP_BASICRESP"
	.section	.data.rel.ro.local.aws_lc_fips_0_13_14_OCSP_BASICRESP_it,"aw"
	.align 32
	.type	aws_lc_fips_0_13_14_OCSP_BASICRESP_it, @object
	.size	aws_lc_fips_0_13_14_OCSP_BASICRESP_it, 48
aws_lc_fips_0_13_14_OCSP_BASICRESP_it:
	.byte	1
	.zero	3
	.long	16
	.quad	OCSP_BASICRESP_seq_tt
	.quad	4
	.quad	0
	.quad	32
	.quad	.LC48
	.section	.text.aws_lc_fips_0_13_14_d2i_OCSP_SIGNATURE,"ax",@progbits
	.globl	aws_lc_fips_0_13_14_d2i_OCSP_SIGNATURE
	.type	aws_lc_fips_0_13_14_d2i_OCSP_SIGNATURE, @function
aws_lc_fips_0_13_14_d2i_OCSP_SIGNATURE:
.LFB1040:
	.file 1 "/home/jdn/.cargo/registry/src/index.crates.io-1949cf8c6b5b557f/aws-lc-fips-sys-0.13.14/aws-lc/crypto/ocsp/ocsp_asn.c"
	.loc 1 95 1
	.cfi_startproc
	endbr64
	pushq	%rbp
	.cfi_def_cfa_offset 16
	.cfi_offset 6, -16
	movq	%rsp, %rbp
	.cfi_def_cfa_register 6
	subq	$32, %rsp
	movq	%rdi, -8(%rbp)
	movq	%rsi, -16(%rbp)
	movq	%rdx, -24(%rbp)
	.loc 1 95 1
	movq	aws_lc_fips_0_13_14_OCSP_SIGNATURE_it@GOTPCREL(%rip), %rax
	movq	%rax, %rcx
	movq	-24(%rbp), %rdx
	movq	-16(%rbp), %rsi
	movq	-8(%rbp), %rax
	movq	%rax, %rdi
	call	aws_lc_fips_0_13_14_ASN1_item_d2i@PLT
	leave
	.cfi_def_cfa 7, 8
	ret
	.cfi_endproc
.LFE1040:
	.size	aws_lc_fips_0_13_14_d2i_OCSP_SIGNATURE, .-aws_lc_fips_0_13_14_d2i_OCSP_SIGNATURE
	.section	.text.aws_lc_fips_0_13_14_i2d_OCSP_SIGNATURE,"ax",@progbits
	.globl	aws_lc_fips_0_13_14_i2d_OCSP_SIGNATURE
	.type	aws_lc_fips_0_13_14_i2d_OCSP_SIGNATURE, @function
aws_lc_fips_0_13_14_i2d_OCSP_SIGNATURE:
.LFB1041:
	.loc 1 95 1
	.cfi_startproc
	endbr64
	pushq	%rbp
	.cfi_def_cfa_offset 16
	.cfi_offset 6, -16
	movq	%rsp, %rbp
	.cfi_def_cfa_register 6
	subq	$16, %rsp
	movq	%rdi, -8(%rbp)
	movq	%rsi, -16(%rbp)
	.loc 1 95 1
	movq	aws_lc_fips_0_13_14_OCSP_SIGNATURE_it@GOTPCREL(%rip), %rax
	movq	%rax, %rdx
	movq	-16(%rbp), %rcx
	movq	-8(%rbp), %rax
	movq	%rcx, %rsi
	movq	%rax, %rdi
	call	aws_lc_fips_0_13_14_ASN1_item_i2d@PLT
	leave
	.cfi_def_cfa 7, 8
	ret
	.cfi_endproc
.LFE1041:
	.size	aws_lc_fips_0_13_14_i2d_OCSP_SIGNATURE, .-aws_lc_fips_0_13_14_i2d_OCSP_SIGNATURE
	.section	.text.aws_lc_fips_0_13_14_OCSP_SIGNATURE_new,"ax",@progbits
	.globl	aws_lc_fips_0_13_14_OCSP_SIGNATURE_new
	.type	aws_lc_fips_0_13_14_OCSP_SIGNATURE_new, @function
aws_lc_fips_0_13_14_OCSP_SIGNATURE_new:
.LFB1042:
	.loc 1 95 1
	.cfi_startproc
	endbr64
	pushq	%rbp
	.cfi_def_cfa_offset 16
	.cfi_offset 6, -16
	movq	%rsp, %rbp
	.cfi_def_cfa_register 6
	.loc 1 95 1
	movq	aws_lc_fips_0_13_14_OCSP_SIGNATURE_it@GOTPCREL(%rip), %rax
	movq	%rax, %rdi
	call	aws_lc_fips_0_13_14_ASN1_item_new@PLT
	popq	%rbp
	.cfi_def_cfa 7, 8
	ret
	.cfi_endproc
.LFE1042:
	.size	aws_lc_fips_0_13_14_OCSP_SIGNATURE_new, .-aws_lc_fips_0_13_14_OCSP_SIGNATURE_new
	.section	.text.aws_lc_fips_0_13_14_OCSP_SIGNATURE_free,"ax",@progbits
	.globl	aws_lc_fips_0_13_14_OCSP_SIGNATURE_free
	.type	aws_lc_fips_0_13_14_OCSP_SIGNATURE_free, @function
aws_lc_fips_0_13_14_OCSP_SIGNATURE_free:
.LFB1043:
	.loc 1 95 1
	.cfi_startproc
	endbr64
	pushq	%rbp
	.cfi_def_cfa_offset 16
	.cfi_offset 6, -16
	movq	%rsp, %rbp
	.cfi_def_cfa_register 6
	subq	$16, %rsp
	movq	%rdi, -8(%rbp)
	.loc 1 95 1
	movq	aws_lc_fips_0_13_14_OCSP_SIGNATURE_it@GOTPCREL(%rip), %rax
	movq	%rax, %rdx
	movq	-8(%rbp), %rax
	movq	%rdx, %rsi
	movq	%rax, %rdi
	call	aws_lc_fips_0_13_14_ASN1_item_free@PLT
	leave
	.cfi_def_cfa 7, 8
	ret
	.cfi_endproc
.LFE1043:
	.size	aws_lc_fips_0_13_14_OCSP_SIGNATURE_free, .-aws_lc_fips_0_13_14_OCSP_SIGNATURE_free
	.section	.text.aws_lc_fips_0_13_14_d2i_OCSP_CERTID,"ax",@progbits
	.globl	aws_lc_fips_0_13_14_d2i_OCSP_CERTID
	.type	aws_lc_fips_0_13_14_d2i_OCSP_CERTID, @function
aws_lc_fips_0_13_14_d2i_OCSP_CERTID:
.LFB1044:
	.loc 1 96 1
	.cfi_startproc
	endbr64
	pushq	%rbp
	.cfi_def_cfa_offset 16
	.cfi_offset 6, -16
	movq	%rsp, %rbp
	.cfi_def_cfa_register 6
	subq	$32, %rsp
	movq	%rdi, -8(%rbp)
	movq	%rsi, -16(%rbp)
	movq	%rdx, -24(%rbp)
	.loc 1 96 1
	movq	aws_lc_fips_0_13_14_OCSP_CERTID_it@GOTPCREL(%rip), %rax
	movq	%rax, %rcx
	movq	-24(%rbp), %rdx
	movq	-16(%rbp), %rsi
	movq	-8(%rbp), %rax
	movq	%rax, %rdi
	call	aws_lc_fips_0_13_14_ASN1_item_d2i@PLT
	leave
	.cfi_def_cfa 7, 8
	ret
	.cfi_endproc
.LFE1044:
	.size	aws_lc_fips_0_13_14_d2i_OCSP_CERTID, .-aws_lc_fips_0_13_14_d2i_OCSP_CERTID
	.section	.text.aws_lc_fips_0_13_14_i2d_OCSP_CERTID,"ax",@progbits
	.globl	aws_lc_fips_0_13_14_i2d_OCSP_CERTID
	.type	aws_lc_fips_0_13_14_i2d_OCSP_CERTID, @function
aws_lc_fips_0_13_14_i2d_OCSP_CERTID:
.LFB1045:
	.loc 1 96 1
	.cfi_startproc
	endbr64
	pushq	%rbp
	.cfi_def_cfa_offset 16
	.cfi_offset 6, -16
	movq	%rsp, %rbp
	.cfi_def_cfa_register 6
	subq	$16, %rsp
	movq	%rdi, -8(%rbp)
	movq	%rsi, -16(%rbp)
	.loc 1 96 1
	movq	aws_lc_fips_0_13_14_OCSP_CERTID_it@GOTPCREL(%rip), %rax
	movq	%rax, %rdx
	movq	-16(%rbp), %rcx
	movq	-8(%rbp), %rax
	movq	%rcx, %rsi
	movq	%rax, %rdi
	call	aws_lc_fips_0_13_14_ASN1_item_i2d@PLT
	leave
	.cfi_def_cfa 7, 8
	ret
	.cfi_endproc
.LFE1045:
	.size	aws_lc_fips_0_13_14_i2d_OCSP_CERTID, .-aws_lc_fips_0_13_14_i2d_OCSP_CERTID
	.section	.text.aws_lc_fips_0_13_14_OCSP_CERTID_new,"ax",@progbits
	.globl	aws_lc_fips_0_13_14_OCSP_CERTID_new
	.type	aws_lc_fips_0_13_14_OCSP_CERTID_new, @function
aws_lc_fips_0_13_14_OCSP_CERTID_new:
.LFB1046:
	.loc 1 96 1
	.cfi_startproc
	endbr64
	pushq	%rbp
	.cfi_def_cfa_offset 16
	.cfi_offset 6, -16
	movq	%rsp, %rbp
	.cfi_def_cfa_register 6
	.loc 1 96 1
	movq	aws_lc_fips_0_13_14_OCSP_CERTID_it@GOTPCREL(%rip), %rax
	movq	%rax, %rdi
	call	aws_lc_fips_0_13_14_ASN1_item_new@PLT
	popq	%rbp
	.cfi_def_cfa 7, 8
	ret
	.cfi_endproc
.LFE1046:
	.size	aws_lc_fips_0_13_14_OCSP_CERTID_new, .-aws_lc_fips_0_13_14_OCSP_CERTID_new
	.section	.text.aws_lc_fips_0_13_14_OCSP_CERTID_free,"ax",@progbits
	.globl	aws_lc_fips_0_13_14_OCSP_CERTID_free
	.type	aws_lc_fips_0_13_14_OCSP_CERTID_free, @function
aws_lc_fips_0_13_14_OCSP_CERTID_free:
.LFB1047:
	.loc 1 96 1
	.cfi_startproc
	endbr64
	pushq	%rbp
	.cfi_def_cfa_offset 16
	.cfi_offset 6, -16
	movq	%rsp, %rbp
	.cfi_def_cfa_register 6
	subq	$16, %rsp
	movq	%rdi, -8(%rbp)
	.loc 1 96 1
	movq	aws_lc_fips_0_13_14_OCSP_CERTID_it@GOTPCREL(%rip), %rax
	movq	%rax, %rdx
	movq	-8(%rbp), %rax
	movq	%rdx, %rsi
	movq	%rax, %rdi
	call	aws_lc_fips_0_13_14_ASN1_item_free@PLT
	leave
	.cfi_def_cfa 7, 8
	ret
	.cfi_endproc
.LFE1047:
	.size	aws_lc_fips_0_13_14_OCSP_CERTID_free, .-aws_lc_fips_0_13_14_OCSP_CERTID_free
	.section	.text.aws_lc_fips_0_13_14_d2i_OCSP_ONEREQ,"ax",@progbits
	.globl	aws_lc_fips_0_13_14_d2i_OCSP_ONEREQ
	.type	aws_lc_fips_0_13_14_d2i_OCSP_ONEREQ, @function
aws_lc_fips_0_13_14_d2i_OCSP_ONEREQ:
.LFB1048:
	.loc 1 97 1
	.cfi_startproc
	endbr64
	pushq	%rbp
	.cfi_def_cfa_offset 16
	.cfi_offset 6, -16
	movq	%rsp, %rbp
	.cfi_def_cfa_register 6
	subq	$32, %rsp
	movq	%rdi, -8(%rbp)
	movq	%rsi, -16(%rbp)
	movq	%rdx, -24(%rbp)
	.loc 1 97 1
	movq	aws_lc_fips_0_13_14_OCSP_ONEREQ_it@GOTPCREL(%rip), %rax
	movq	%rax, %rcx
	movq	-24(%rbp), %rdx
	movq	-16(%rbp), %rsi
	movq	-8(%rbp), %rax
	movq	%rax, %rdi
	call	aws_lc_fips_0_13_14_ASN1_item_d2i@PLT
	leave
	.cfi_def_cfa 7, 8
	ret
	.cfi_endproc
.LFE1048:
	.size	aws_lc_fips_0_13_14_d2i_OCSP_ONEREQ, .-aws_lc_fips_0_13_14_d2i_OCSP_ONEREQ
	.section	.text.aws_lc_fips_0_13_14_i2d_OCSP_ONEREQ,"ax",@progbits
	.globl	aws_lc_fips_0_13_14_i2d_OCSP_ONEREQ
	.type	aws_lc_fips_0_13_14_i2d_OCSP_ONEREQ, @function
aws_lc_fips_0_13_14_i2d_OCSP_ONEREQ:
.LFB1049:
	.loc 1 97 1
	.cfi_startproc
	endbr64
	pushq	%rbp
	.cfi_def_cfa_offset 16
	.cfi_offset 6, -16
	movq	%rsp, %rbp
	.cfi_def_cfa_register 6
	subq	$16, %rsp
	movq	%rdi, -8(%rbp)
	movq	%rsi, -16(%rbp)
	.loc 1 97 1
	movq	aws_lc_fips_0_13_14_OCSP_ONEREQ_it@GOTPCREL(%rip), %rax
	movq	%rax, %rdx
	movq	-16(%rbp), %rcx
	movq	-8(%rbp), %rax
	movq	%rcx, %rsi
	movq	%rax, %rdi
	call	aws_lc_fips_0_13_14_ASN1_item_i2d@PLT
	leave
	.cfi_def_cfa 7, 8
	ret
	.cfi_endproc
.LFE1049:
	.size	aws_lc_fips_0_13_14_i2d_OCSP_ONEREQ, .-aws_lc_fips_0_13_14_i2d_OCSP_ONEREQ
	.section	.text.aws_lc_fips_0_13_14_OCSP_ONEREQ_new,"ax",@progbits
	.globl	aws_lc_fips_0_13_14_OCSP_ONEREQ_new
	.type	aws_lc_fips_0_13_14_OCSP_ONEREQ_new, @function
aws_lc_fips_0_13_14_OCSP_ONEREQ_new:
.LFB1050:
	.loc 1 97 1
	.cfi_startproc
	endbr64
	pushq	%rbp
	.cfi_def_cfa_offset 16
	.cfi_offset 6, -16
	movq	%rsp, %rbp
	.cfi_def_cfa_register 6
	.loc 1 97 1
	movq	aws_lc_fips_0_13_14_OCSP_ONEREQ_it@GOTPCREL(%rip), %rax
	movq	%rax, %rdi
	call	aws_lc_fips_0_13_14_ASN1_item_new@PLT
	popq	%rbp
	.cfi_def_cfa 7, 8
	ret
	.cfi_endproc
.LFE1050:
	.size	aws_lc_fips_0_13_14_OCSP_ONEREQ_new, .-aws_lc_fips_0_13_14_OCSP_ONEREQ_new
	.section	.text.aws_lc_fips_0_13_14_OCSP_ONEREQ_free,"ax",@progbits
	.globl	aws_lc_fips_0_13_14_OCSP_ONEREQ_free
	.type	aws_lc_fips_0_13_14_OCSP_ONEREQ_free, @function
aws_lc_fips_0_13_14_OCSP_ONEREQ_free:
.LFB1051:
	.loc 1 97 1
	.cfi_startproc
	endbr64
	pushq	%rbp
	.cfi_def_cfa_offset 16
	.cfi_offset 6, -16
	movq	%rsp, %rbp
	.cfi_def_cfa_register 6
	subq	$16, %rsp
	movq	%rdi, -8(%rbp)
	.loc 1 97 1
	movq	aws_lc_fips_0_13_14_OCSP_ONEREQ_it@GOTPCREL(%rip), %rax
	movq	%rax, %rdx
	movq	-8(%rbp), %rax
	movq	%rdx, %rsi
	movq	%rax, %rdi
	call	aws_lc_fips_0_13_14_ASN1_item_free@PLT
	leave
	.cfi_def_cfa 7, 8
	ret
	.cfi_endproc
.LFE1051:
	.size	aws_lc_fips_0_13_14_OCSP_ONEREQ_free, .-aws_lc_fips_0_13_14_OCSP_ONEREQ_free
	.section	.text.aws_lc_fips_0_13_14_d2i_OCSP_REQINFO,"ax",@progbits
	.globl	aws_lc_fips_0_13_14_d2i_OCSP_REQINFO
	.type	aws_lc_fips_0_13_14_d2i_OCSP_REQINFO, @function
aws_lc_fips_0_13_14_d2i_OCSP_REQINFO:
.LFB1052:
	.loc 1 98 1
	.cfi_startproc
	endbr64
	pushq	%rbp
	.cfi_def_cfa_offset 16
	.cfi_offset 6, -16
	movq	%rsp, %rbp
	.cfi_def_cfa_register 6
	subq	$32, %rsp
	movq	%rdi, -8(%rbp)
	movq	%rsi, -16(%rbp)
	movq	%rdx, -24(%rbp)
	.loc 1 98 1
	movq	aws_lc_fips_0_13_14_OCSP_REQINFO_it@GOTPCREL(%rip), %rax
	movq	%rax, %rcx
	movq	-24(%rbp), %rdx
	movq	-16(%rbp), %rsi
	movq	-8(%rbp), %rax
	movq	%rax, %rdi
	call	aws_lc_fips_0_13_14_ASN1_item_d2i@PLT
	leave
	.cfi_def_cfa 7, 8
	ret
	.cfi_endproc
.LFE1052:
	.size	aws_lc_fips_0_13_14_d2i_OCSP_REQINFO, .-aws_lc_fips_0_13_14_d2i_OCSP_REQINFO
	.section	.text.aws_lc_fips_0_13_14_i2d_OCSP_REQINFO,"ax",@progbits
	.globl	aws_lc_fips_0_13_14_i2d_OCSP_REQINFO
	.type	aws_lc_fips_0_13_14_i2d_OCSP_REQINFO, @function
aws_lc_fips_0_13_14_i2d_OCSP_REQINFO:
.LFB1053:
	.loc 1 98 1
	.cfi_startproc
	endbr64
	pushq	%rbp
	.cfi_def_cfa_offset 16
	.cfi_offset 6, -16
	movq	%rsp, %rbp
	.cfi_def_cfa_register 6
	subq	$16, %rsp
	movq	%rdi, -8(%rbp)
	movq	%rsi, -16(%rbp)
	.loc 1 98 1
	movq	aws_lc_fips_0_13_14_OCSP_REQINFO_it@GOTPCREL(%rip), %rax
	movq	%rax, %rdx
	movq	-16(%rbp), %rcx
	movq	-8(%rbp), %rax
	movq	%rcx, %rsi
	movq	%rax, %rdi
	call	aws_lc_fips_0_13_14_ASN1_item_i2d@PLT
	leave
	.cfi_def_cfa 7, 8
	ret
	.cfi_endproc
.LFE1053:
	.size	aws_lc_fips_0_13_14_i2d_OCSP_REQINFO, .-aws_lc_fips_0_13_14_i2d_OCSP_REQINFO
	.section	.text.aws_lc_fips_0_13_14_OCSP_REQINFO_new,"ax",@progbits
	.globl	aws_lc_fips_0_13_14_OCSP_REQINFO_new
	.type	aws_lc_fips_0_13_14_OCSP_REQINFO_new, @function
aws_lc_fips_0_13_14_OCSP_REQINFO_new:
.LFB1054:
	.loc 1 98 1
	.cfi_startproc
	endbr64
	pushq	%rbp
	.cfi_def_cfa_offset 16
	.cfi_offset 6, -16
	movq	%rsp, %rbp
	.cfi_def_cfa_register 6
	.loc 1 98 1
	movq	aws_lc_fips_0_13_14_OCSP_REQINFO_it@GOTPCREL(%rip), %rax
	movq	%rax, %rdi
	call	aws_lc_fips_0_13_14_ASN1_item_new@PLT
	popq	%rbp
	.cfi_def_cfa 7, 8
	ret
	.cfi_endproc
.LFE1054:
	.size	aws_lc_fips_0_13_14_OCSP_REQINFO_new, .-aws_lc_fips_0_13_14_OCSP_REQINFO_new
	.section	.text.aws_lc_fips_0_13_14_OCSP_REQINFO_free,"ax",@progbits
	.globl	aws_lc_fips_0_13_14_OCSP_REQINFO_free
	.type	aws_lc_fips_0_13_14_OCSP_REQINFO_free, @function
aws_lc_fips_0_13_14_OCSP_REQINFO_free:
.LFB1055:
	.loc 1 98 1
	.cfi_startproc
	endbr64
	pushq	%rbp
	.cfi_def_cfa_offset 16
	.cfi_offset 6, -16
	movq	%rsp, %rbp
	.cfi_def_cfa_register 6
	subq	$16, %rsp
	movq	%rdi, -8(%rbp)
	.loc 1 98 1
	movq	aws_lc_fips_0_13_14_OCSP_REQINFO_it@GOTPCREL(%rip), %rax
	movq	%rax, %rdx
	movq	-8(%rbp), %rax
	movq	%rdx, %rsi
	movq	%rax, %rdi
	call	aws_lc_fips_0_13_14_ASN1_item_free@PLT
	leave
	.cfi_def_cfa 7, 8
	ret
	.cfi_endproc
.LFE1055:
	.size	aws_lc_fips_0_13_14_OCSP_REQINFO_free, .-aws_lc_fips_0_13_14_OCSP_REQINFO_free
	.section	.text.aws_lc_fips_0_13_14_d2i_OCSP_REQUEST,"ax",@progbits
	.globl	aws_lc_fips_0_13_14_d2i_OCSP_REQUEST
	.type	aws_lc_fips_0_13_14_d2i_OCSP_REQUEST, @function
aws_lc_fips_0_13_14_d2i_OCSP_REQUEST:
.LFB1056:
	.loc 1 99 1
	.cfi_startproc
	endbr64
	pushq	%rbp
	.cfi_def_cfa_offset 16
	.cfi_offset 6, -16
	movq	%rsp, %rbp
	.cfi_def_cfa_register 6
	subq	$32, %rsp
	movq	%rdi, -8(%rbp)
	movq	%rsi, -16(%rbp)
	movq	%rdx, -24(%rbp)
	.loc 1 99 1
	movq	aws_lc_fips_0_13_14_OCSP_REQUEST_it@GOTPCREL(%rip), %rax
	movq	%rax, %rcx
	movq	-24(%rbp), %rdx
	movq	-16(%rbp), %rsi
	movq	-8(%rbp), %rax
	movq	%rax, %rdi
	call	aws_lc_fips_0_13_14_ASN1_item_d2i@PLT
	leave
	.cfi_def_cfa 7, 8
	ret
	.cfi_endproc
.LFE1056:
	.size	aws_lc_fips_0_13_14_d2i_OCSP_REQUEST, .-aws_lc_fips_0_13_14_d2i_OCSP_REQUEST
	.section	.text.aws_lc_fips_0_13_14_i2d_OCSP_REQUEST,"ax",@progbits
	.globl	aws_lc_fips_0_13_14_i2d_OCSP_REQUEST
	.type	aws_lc_fips_0_13_14_i2d_OCSP_REQUEST, @function
aws_lc_fips_0_13_14_i2d_OCSP_REQUEST:
.LFB1057:
	.loc 1 99 1
	.cfi_startproc
	endbr64
	pushq	%rbp
	.cfi_def_cfa_offset 16
	.cfi_offset 6, -16
	movq	%rsp, %rbp
	.cfi_def_cfa_register 6
	subq	$16, %rsp
	movq	%rdi, -8(%rbp)
	movq	%rsi, -16(%rbp)
	.loc 1 99 1
	movq	aws_lc_fips_0_13_14_OCSP_REQUEST_it@GOTPCREL(%rip), %rax
	movq	%rax, %rdx
	movq	-16(%rbp), %rcx
	movq	-8(%rbp), %rax
	movq	%rcx, %rsi
	movq	%rax, %rdi
	call	aws_lc_fips_0_13_14_ASN1_item_i2d@PLT
	leave
	.cfi_def_cfa 7, 8
	ret
	.cfi_endproc
.LFE1057:
	.size	aws_lc_fips_0_13_14_i2d_OCSP_REQUEST, .-aws_lc_fips_0_13_14_i2d_OCSP_REQUEST
	.section	.text.aws_lc_fips_0_13_14_OCSP_REQUEST_new,"ax",@progbits
	.globl	aws_lc_fips_0_13_14_OCSP_REQUEST_new
	.type	aws_lc_fips_0_13_14_OCSP_REQUEST_new, @function
aws_lc_fips_0_13_14_OCSP_REQUEST_new:
.LFB1058:
	.loc 1 99 1
	.cfi_startproc
	endbr64
	pushq	%rbp
	.cfi_def_cfa_offset 16
	.cfi_offset 6, -16
	movq	%rsp, %rbp
	.cfi_def_cfa_register 6
	.loc 1 99 1
	movq	aws_lc_fips_0_13_14_OCSP_REQUEST_it@GOTPCREL(%rip), %rax
	movq	%rax, %rdi
	call	aws_lc_fips_0_13_14_ASN1_item_new@PLT
	popq	%rbp
	.cfi_def_cfa 7, 8
	ret
	.cfi_endproc
.LFE1058:
	.size	aws_lc_fips_0_13_14_OCSP_REQUEST_new, .-aws_lc_fips_0_13_14_OCSP_REQUEST_new
	.section	.text.aws_lc_fips_0_13_14_OCSP_REQUEST_free,"ax",@progbits
	.globl	aws_lc_fips_0_13_14_OCSP_REQUEST_free
	.type	aws_lc_fips_0_13_14_OCSP_REQUEST_free, @function
aws_lc_fips_0_13_14_OCSP_REQUEST_free:
.LFB1059:
	.loc 1 99 1
	.cfi_startproc
	endbr64
	pushq	%rbp
	.cfi_def_cfa_offset 16
	.cfi_offset 6, -16
	movq	%rsp, %rbp
	.cfi_def_cfa_register 6
	subq	$16, %rsp
	movq	%rdi, -8(%rbp)
	.loc 1 99 1
	movq	aws_lc_fips_0_13_14_OCSP_REQUEST_it@GOTPCREL(%rip), %rax
	movq	%rax, %rdx
	movq	-8(%rbp), %rax
	movq	%rdx, %rsi
	movq	%rax, %rdi
	call	aws_lc_fips_0_13_14_ASN1_item_free@PLT
	leave
	.cfi_def_cfa 7, 8
	ret
	.cfi_endproc
.LFE1059:
	.size	aws_lc_fips_0_13_14_OCSP_REQUEST_free, .-aws_lc_fips_0_13_14_OCSP_REQUEST_free
	.section	.text.aws_lc_fips_0_13_14_d2i_OCSP_RESPONSE,"ax",@progbits
	.globl	aws_lc_fips_0_13_14_d2i_OCSP_RESPONSE
	.type	aws_lc_fips_0_13_14_d2i_OCSP_RESPONSE, @function
aws_lc_fips_0_13_14_d2i_OCSP_RESPONSE:
.LFB1060:
	.loc 1 100 1
	.cfi_startproc
	endbr64
	pushq	%rbp
	.cfi_def_cfa_offset 16
	.cfi_offset 6, -16
	movq	%rsp, %rbp
	.cfi_def_cfa_register 6
	subq	$32, %rsp
	movq	%rdi, -8(%rbp)
	movq	%rsi, -16(%rbp)
	movq	%rdx, -24(%rbp)
	.loc 1 100 1
	movq	aws_lc_fips_0_13_14_OCSP_RESPONSE_it@GOTPCREL(%rip), %rax
	movq	%rax, %rcx
	movq	-24(%rbp), %rdx
	movq	-16(%rbp), %rsi
	movq	-8(%rbp), %rax
	movq	%rax, %rdi
	call	aws_lc_fips_0_13_14_ASN1_item_d2i@PLT
	leave
	.cfi_def_cfa 7, 8
	ret
	.cfi_endproc
.LFE1060:
	.size	aws_lc_fips_0_13_14_d2i_OCSP_RESPONSE, .-aws_lc_fips_0_13_14_d2i_OCSP_RESPONSE
	.section	.text.aws_lc_fips_0_13_14_i2d_OCSP_RESPONSE,"ax",@progbits
	.globl	aws_lc_fips_0_13_14_i2d_OCSP_RESPONSE
	.type	aws_lc_fips_0_13_14_i2d_OCSP_RESPONSE, @function
aws_lc_fips_0_13_14_i2d_OCSP_RESPONSE:
.LFB1061:
	.loc 1 100 1
	.cfi_startproc
	endbr64
	pushq	%rbp
	.cfi_def_cfa_offset 16
	.cfi_offset 6, -16
	movq	%rsp, %rbp
	.cfi_def_cfa_register 6
	subq	$16, %rsp
	movq	%rdi, -8(%rbp)
	movq	%rsi, -16(%rbp)
	.loc 1 100 1
	movq	aws_lc_fips_0_13_14_OCSP_RESPONSE_it@GOTPCREL(%rip), %rax
	movq	%rax, %rdx
	movq	-16(%rbp), %rcx
	movq	-8(%rbp), %rax
	movq	%rcx, %rsi
	movq	%rax, %rdi
	call	aws_lc_fips_0_13_14_ASN1_item_i2d@PLT
	leave
	.cfi_def_cfa 7, 8
	ret
	.cfi_endproc
.LFE1061:
	.size	aws_lc_fips_0_13_14_i2d_OCSP_RESPONSE, .-aws_lc_fips_0_13_14_i2d_OCSP_RESPONSE
	.section	.text.aws_lc_fips_0_13_14_OCSP_RESPONSE_new,"ax",@progbits
	.globl	aws_lc_fips_0_13_14_OCSP_RESPONSE_new
	.type	aws_lc_fips_0_13_14_OCSP_RESPONSE_new, @function
aws_lc_fips_0_13_14_OCSP_RESPONSE_new:
.LFB1062:
	.loc 1 100 1
	.cfi_startproc
	endbr64
	pushq	%rbp
	.cfi_def_cfa_offset 16
	.cfi_offset 6, -16
	movq	%rsp, %rbp
	.cfi_def_cfa_register 6
	.loc 1 100 1
	movq	aws_lc_fips_0_13_14_OCSP_RESPONSE_it@GOTPCREL(%rip), %rax
	movq	%rax, %rdi
	call	aws_lc_fips_0_13_14_ASN1_item_new@PLT
	popq	%rbp
	.cfi_def_cfa 7, 8
	ret
	.cfi_endproc
.LFE1062:
	.size	aws_lc_fips_0_13_14_OCSP_RESPONSE_new, .-aws_lc_fips_0_13_14_OCSP_RESPONSE_new
	.section	.text.aws_lc_fips_0_13_14_OCSP_RESPONSE_free,"ax",@progbits
	.globl	aws_lc_fips_0_13_14_OCSP_RESPONSE_free
	.type	aws_lc_fips_0_13_14_OCSP_RESPONSE_free, @function
aws_lc_fips_0_13_14_OCSP_RESPONSE_free:
.LFB1063:
	.loc 1 100 1
	.cfi_startproc
	endbr64
	pushq	%rbp
	.cfi_def_cfa_offset 16
	.cfi_offset 6, -16
	movq	%rsp, %rbp
	.cfi_def_cfa_register 6
	subq	$16, %rsp
	movq	%rdi, -8(%rbp)
	.loc 1 100 1
	movq	aws_lc_fips_0_13_14_OCSP_RESPONSE_it@GOTPCREL(%rip), %rax
	movq	%rax, %rdx
	movq	-8(%rbp), %rax
	movq	%rdx, %rsi
	movq	%rax, %rdi
	call	aws_lc_fips_0_13_14_ASN1_item_free@PLT
	leave
	.cfi_def_cfa 7, 8
	ret
	.cfi_endproc
.LFE1063:
	.size	aws_lc_fips_0_13_14_OCSP_RESPONSE_free, .-aws_lc_fips_0_13_14_OCSP_RESPONSE_free
	.section	.text.aws_lc_fips_0_13_14_d2i_OCSP_RESPBYTES,"ax",@progbits
	.globl	aws_lc_fips_0_13_14_d2i_OCSP_RESPBYTES
	.type	aws_lc_fips_0_13_14_d2i_OCSP_RESPBYTES, @function
aws_lc_fips_0_13_14_d2i_OCSP_RESPBYTES:
.LFB1064:
	.loc 1 101 1
	.cfi_startproc
	endbr64
	pushq	%rbp
	.cfi_def_cfa_offset 16
	.cfi_offset 6, -16
	movq	%rsp, %rbp
	.cfi_def_cfa_register 6
	subq	$32, %rsp
	movq	%rdi, -8(%rbp)
	movq	%rsi, -16(%rbp)
	movq	%rdx, -24(%rbp)
	.loc 1 101 1
	movq	aws_lc_fips_0_13_14_OCSP_RESPBYTES_it@GOTPCREL(%rip), %rax
	movq	%rax, %rcx
	movq	-24(%rbp), %rdx
	movq	-16(%rbp), %rsi
	movq	-8(%rbp), %rax
	movq	%rax, %rdi
	call	aws_lc_fips_0_13_14_ASN1_item_d2i@PLT
	leave
	.cfi_def_cfa 7, 8
	ret
	.cfi_endproc
.LFE1064:
	.size	aws_lc_fips_0_13_14_d2i_OCSP_RESPBYTES, .-aws_lc_fips_0_13_14_d2i_OCSP_RESPBYTES
	.section	.text.aws_lc_fips_0_13_14_i2d_OCSP_RESPBYTES,"ax",@progbits
	.globl	aws_lc_fips_0_13_14_i2d_OCSP_RESPBYTES
	.type	aws_lc_fips_0_13_14_i2d_OCSP_RESPBYTES, @function
aws_lc_fips_0_13_14_i2d_OCSP_RESPBYTES:
.LFB1065:
	.loc 1 101 1
	.cfi_startproc
	endbr64
	pushq	%rbp
	.cfi_def_cfa_offset 16
	.cfi_offset 6, -16
	movq	%rsp, %rbp
	.cfi_def_cfa_register 6
	subq	$16, %rsp
	movq	%rdi, -8(%rbp)
	movq	%rsi, -16(%rbp)
	.loc 1 101 1
	movq	aws_lc_fips_0_13_14_OCSP_RESPBYTES_it@GOTPCREL(%rip), %rax
	movq	%rax, %rdx
	movq	-16(%rbp), %rcx
	movq	-8(%rbp), %rax
	movq	%rcx, %rsi
	movq	%rax, %rdi
	call	aws_lc_fips_0_13_14_ASN1_item_i2d@PLT
	leave
	.cfi_def_cfa 7, 8
	ret
	.cfi_endproc
.LFE1065:
	.size	aws_lc_fips_0_13_14_i2d_OCSP_RESPBYTES, .-aws_lc_fips_0_13_14_i2d_OCSP_RESPBYTES
	.section	.text.aws_lc_fips_0_13_14_OCSP_RESPBYTES_new,"ax",@progbits
	.globl	aws_lc_fips_0_13_14_OCSP_RESPBYTES_new
	.type	aws_lc_fips_0_13_14_OCSP_RESPBYTES_new, @function
aws_lc_fips_0_13_14_OCSP_RESPBYTES_new:
.LFB1066:
	.loc 1 101 1
	.cfi_startproc
	endbr64
	pushq	%rbp
	.cfi_def_cfa_offset 16
	.cfi_offset 6, -16
	movq	%rsp, %rbp
	.cfi_def_cfa_register 6
	.loc 1 101 1
	movq	aws_lc_fips_0_13_14_OCSP_RESPBYTES_it@GOTPCREL(%rip), %rax
	movq	%rax, %rdi
	call	aws_lc_fips_0_13_14_ASN1_item_new@PLT
	popq	%rbp
	.cfi_def_cfa 7, 8
	ret
	.cfi_endproc
.LFE1066:
	.size	aws_lc_fips_0_13_14_OCSP_RESPBYTES_new, .-aws_lc_fips_0_13_14_OCSP_RESPBYTES_new
	.section	.text.aws_lc_fips_0_13_14_OCSP_RESPBYTES_free,"ax",@progbits
	.globl	aws_lc_fips_0_13_14_OCSP_RESPBYTES_free
	.type	aws_lc_fips_0_13_14_OCSP_RESPBYTES_free, @function
aws_lc_fips_0_13_14_OCSP_RESPBYTES_free:
.LFB1067:
	.loc 1 101 1
	.cfi_startproc
	endbr64
	pushq	%rbp
	.cfi_def_cfa_offset 16
	.cfi_offset 6, -16
	movq	%rsp, %rbp
	.cfi_def_cfa_register 6
	subq	$16, %rsp
	movq	%rdi, -8(%rbp)
	.loc 1 101 1
	movq	aws_lc_fips_0_13_14_OCSP_RESPBYTES_it@GOTPCREL(%rip), %rax
	movq	%rax, %rdx
	movq	-8(%rbp), %rax
	movq	%rdx, %rsi
	movq	%rax, %rdi
	call	aws_lc_fips_0_13_14_ASN1_item_free@PLT
	leave
	.cfi_def_cfa 7, 8
	ret
	.cfi_endproc
.LFE1067:
	.size	aws_lc_fips_0_13_14_OCSP_RESPBYTES_free, .-aws_lc_fips_0_13_14_OCSP_RESPBYTES_free
	.section	.text.aws_lc_fips_0_13_14_d2i_OCSP_RESPDATA,"ax",@progbits
	.globl	aws_lc_fips_0_13_14_d2i_OCSP_RESPDATA
	.type	aws_lc_fips_0_13_14_d2i_OCSP_RESPDATA, @function
aws_lc_fips_0_13_14_d2i_OCSP_RESPDATA:
.LFB1068:
	.loc 1 102 1
	.cfi_startproc
	endbr64
	pushq	%rbp
	.cfi_def_cfa_offset 16
	.cfi_offset 6, -16
	movq	%rsp, %rbp
	.cfi_def_cfa_register 6
	subq	$32, %rsp
	movq	%rdi, -8(%rbp)
	movq	%rsi, -16(%rbp)
	movq	%rdx, -24(%rbp)
	.loc 1 102 1
	movq	aws_lc_fips_0_13_14_OCSP_RESPDATA_it@GOTPCREL(%rip), %rax
	movq	%rax, %rcx
	movq	-24(%rbp), %rdx
	movq	-16(%rbp), %rsi
	movq	-8(%rbp), %rax
	movq	%rax, %rdi
	call	aws_lc_fips_0_13_14_ASN1_item_d2i@PLT
	leave
	.cfi_def_cfa 7, 8
	ret
	.cfi_endproc
.LFE1068:
	.size	aws_lc_fips_0_13_14_d2i_OCSP_RESPDATA, .-aws_lc_fips_0_13_14_d2i_OCSP_RESPDATA
	.section	.text.aws_lc_fips_0_13_14_i2d_OCSP_RESPDATA,"ax",@progbits
	.globl	aws_lc_fips_0_13_14_i2d_OCSP_RESPDATA
	.type	aws_lc_fips_0_13_14_i2d_OCSP_RESPDATA, @function
aws_lc_fips_0_13_14_i2d_OCSP_RESPDATA:
.LFB1069:
	.loc 1 102 1
	.cfi_startproc
	endbr64
	pushq	%rbp
	.cfi_def_cfa_offset 16
	.cfi_offset 6, -16
	movq	%rsp, %rbp
	.cfi_def_cfa_register 6
	subq	$16, %rsp
	movq	%rdi, -8(%rbp)
	movq	%rsi, -16(%rbp)
	.loc 1 102 1
	movq	aws_lc_fips_0_13_14_OCSP_RESPDATA_it@GOTPCREL(%rip), %rax
	movq	%rax, %rdx
	movq	-16(%rbp), %rcx
	movq	-8(%rbp), %rax
	movq	%rcx, %rsi
	movq	%rax, %rdi
	call	aws_lc_fips_0_13_14_ASN1_item_i2d@PLT
	leave
	.cfi_def_cfa 7, 8
	ret
	.cfi_endproc
.LFE1069:
	.size	aws_lc_fips_0_13_14_i2d_OCSP_RESPDATA, .-aws_lc_fips_0_13_14_i2d_OCSP_RESPDATA
	.section	.text.aws_lc_fips_0_13_14_OCSP_RESPDATA_new,"ax",@progbits
	.globl	aws_lc_fips_0_13_14_OCSP_RESPDATA_new
	.type	aws_lc_fips_0_13_14_OCSP_RESPDATA_new, @function
aws_lc_fips_0_13_14_OCSP_RESPDATA_new:
.LFB1070:
	.loc 1 102 1
	.cfi_startproc
	endbr64
	pushq	%rbp
	.cfi_def_cfa_offset 16
	.cfi_offset 6, -16
	movq	%rsp, %rbp
	.cfi_def_cfa_register 6
	.loc 1 102 1
	movq	aws_lc_fips_0_13_14_OCSP_RESPDATA_it@GOTPCREL(%rip), %rax
	movq	%rax, %rdi
	call	aws_lc_fips_0_13_14_ASN1_item_new@PLT
	popq	%rbp
	.cfi_def_cfa 7, 8
	ret
	.cfi_endproc
.LFE1070:
	.size	aws_lc_fips_0_13_14_OCSP_RESPDATA_new, .-aws_lc_fips_0_13_14_OCSP_RESPDATA_new
	.section	.text.aws_lc_fips_0_13_14_OCSP_RESPDATA_free,"ax",@progbits
	.globl	aws_lc_fips_0_13_14_OCSP_RESPDATA_free
	.type	aws_lc_fips_0_13_14_OCSP_RESPDATA_free, @function
aws_lc_fips_0_13_14_OCSP_RESPDATA_free:
.LFB1071:
	.loc 1 102 1
	.cfi_startproc
	endbr64
	pushq	%rbp
	.cfi_def_cfa_offset 16
	.cfi_offset 6, -16
	movq	%rsp, %rbp
	.cfi_def_cfa_register 6
	subq	$16, %rsp
	movq	%rdi, -8(%rbp)
	.loc 1 102 1
	movq	aws_lc_fips_0_13_14_OCSP_RESPDATA_it@GOTPCREL(%rip), %rax
	movq	%rax, %rdx
	movq	-8(%rbp), %rax
	movq	%rdx, %rsi
	movq	%rax, %rdi
	call	aws_lc_fips_0_13_14_ASN1_item_free@PLT
	leave
	.cfi_def_cfa 7, 8
	ret
	.cfi_endproc
.LFE1071:
	.size	aws_lc_fips_0_13_14_OCSP_RESPDATA_free, .-aws_lc_fips_0_13_14_OCSP_RESPDATA_free
	.section	.text.aws_lc_fips_0_13_14_d2i_OCSP_REVOKEDINFO,"ax",@progbits
	.globl	aws_lc_fips_0_13_14_d2i_OCSP_REVOKEDINFO
	.type	aws_lc_fips_0_13_14_d2i_OCSP_REVOKEDINFO, @function
aws_lc_fips_0_13_14_d2i_OCSP_REVOKEDINFO:
.LFB1072:
	.loc 1 103 1
	.cfi_startproc
	endbr64
	pushq	%rbp
	.cfi_def_cfa_offset 16
	.cfi_offset 6, -16
	movq	%rsp, %rbp
	.cfi_def_cfa_register 6
	subq	$32, %rsp
	movq	%rdi, -8(%rbp)
	movq	%rsi, -16(%rbp)
	movq	%rdx, -24(%rbp)
	.loc 1 103 1
	movq	aws_lc_fips_0_13_14_OCSP_REVOKEDINFO_it@GOTPCREL(%rip), %rax
	movq	%rax, %rcx
	movq	-24(%rbp), %rdx
	movq	-16(%rbp), %rsi
	movq	-8(%rbp), %rax
	movq	%rax, %rdi
	call	aws_lc_fips_0_13_14_ASN1_item_d2i@PLT
	leave
	.cfi_def_cfa 7, 8
	ret
	.cfi_endproc
.LFE1072:
	.size	aws_lc_fips_0_13_14_d2i_OCSP_REVOKEDINFO, .-aws_lc_fips_0_13_14_d2i_OCSP_REVOKEDINFO
	.section	.text.aws_lc_fips_0_13_14_i2d_OCSP_REVOKEDINFO,"ax",@progbits
	.globl	aws_lc_fips_0_13_14_i2d_OCSP_REVOKEDINFO
	.type	aws_lc_fips_0_13_14_i2d_OCSP_REVOKEDINFO, @function
aws_lc_fips_0_13_14_i2d_OCSP_REVOKEDINFO:
.LFB1073:
	.loc 1 103 1
	.cfi_startproc
	endbr64
	pushq	%rbp
	.cfi_def_cfa_offset 16
	.cfi_offset 6, -16
	movq	%rsp, %rbp
	.cfi_def_cfa_register 6
	subq	$16, %rsp
	movq	%rdi, -8(%rbp)
	movq	%rsi, -16(%rbp)
	.loc 1 103 1
	movq	aws_lc_fips_0_13_14_OCSP_REVOKEDINFO_it@GOTPCREL(%rip), %rax
	movq	%rax, %rdx
	movq	-16(%rbp), %rcx
	movq	-8(%rbp), %rax
	movq	%rcx, %rsi
	movq	%rax, %rdi
	call	aws_lc_fips_0_13_14_ASN1_item_i2d@PLT
	leave
	.cfi_def_cfa 7, 8
	ret
	.cfi_endproc
.LFE1073:
	.size	aws_lc_fips_0_13_14_i2d_OCSP_REVOKEDINFO, .-aws_lc_fips_0_13_14_i2d_OCSP_REVOKEDINFO
	.section	.text.aws_lc_fips_0_13_14_OCSP_REVOKEDINFO_new,"ax",@progbits
	.globl	aws_lc_fips_0_13_14_OCSP_REVOKEDINFO_new
	.type	aws_lc_fips_0_13_14_OCSP_REVOKEDINFO_new, @function
aws_lc_fips_0_13_14_OCSP_REVOKEDINFO_new:
.LFB1074:
	.loc 1 103 1
	.cfi_startproc
	endbr64
	pushq	%rbp
	.cfi_def_cfa_offset 16
	.cfi_offset 6, -16
	movq	%rsp, %rbp
	.cfi_def_cfa_register 6
	.loc 1 103 1
	movq	aws_lc_fips_0_13_14_OCSP_REVOKEDINFO_it@GOTPCREL(%rip), %rax
	movq	%rax, %rdi
	call	aws_lc_fips_0_13_14_ASN1_item_new@PLT
	popq	%rbp
	.cfi_def_cfa 7, 8
	ret
	.cfi_endproc
.LFE1074:
	.size	aws_lc_fips_0_13_14_OCSP_REVOKEDINFO_new, .-aws_lc_fips_0_13_14_OCSP_REVOKEDINFO_new
	.section	.text.aws_lc_fips_0_13_14_OCSP_REVOKEDINFO_free,"ax",@progbits
	.globl	aws_lc_fips_0_13_14_OCSP_REVOKEDINFO_free
	.type	aws_lc_fips_0_13_14_OCSP_REVOKEDINFO_free, @function
aws_lc_fips_0_13_14_OCSP_REVOKEDINFO_free:
.LFB1075:
	.loc 1 103 1
	.cfi_startproc
	endbr64
	pushq	%rbp
	.cfi_def_cfa_offset 16
	.cfi_offset 6, -16
	movq	%rsp, %rbp
	.cfi_def_cfa_register 6
	subq	$16, %rsp
	movq	%rdi, -8(%rbp)
	.loc 1 103 1
	movq	aws_lc_fips_0_13_14_OCSP_REVOKEDINFO_it@GOTPCREL(%rip), %rax
	movq	%rax, %rdx
	movq	-8(%rbp), %rax
	movq	%rdx, %rsi
	movq	%rax, %rdi
	call	aws_lc_fips_0_13_14_ASN1_item_free@PLT
	leave
	.cfi_def_cfa 7, 8
	ret
	.cfi_endproc
.LFE1075:
	.size	aws_lc_fips_0_13_14_OCSP_REVOKEDINFO_free, .-aws_lc_fips_0_13_14_OCSP_REVOKEDINFO_free
	.section	.text.aws_lc_fips_0_13_14_d2i_OCSP_BASICRESP,"ax",@progbits
	.globl	aws_lc_fips_0_13_14_d2i_OCSP_BASICRESP
	.type	aws_lc_fips_0_13_14_d2i_OCSP_BASICRESP, @function
aws_lc_fips_0_13_14_d2i_OCSP_BASICRESP:
.LFB1076:
	.loc 1 104 1
	.cfi_startproc
	endbr64
	pushq	%rbp
	.cfi_def_cfa_offset 16
	.cfi_offset 6, -16
	movq	%rsp, %rbp
	.cfi_def_cfa_register 6
	subq	$32, %rsp
	movq	%rdi, -8(%rbp)
	movq	%rsi, -16(%rbp)
	movq	%rdx, -24(%rbp)
	.loc 1 104 1
	movq	aws_lc_fips_0_13_14_OCSP_BASICRESP_it@GOTPCREL(%rip), %rax
	movq	%rax, %rcx
	movq	-24(%rbp), %rdx
	movq	-16(%rbp), %rsi
	movq	-8(%rbp), %rax
	movq	%rax, %rdi
	call	aws_lc_fips_0_13_14_ASN1_item_d2i@PLT
	leave
	.cfi_def_cfa 7, 8
	ret
	.cfi_endproc
.LFE1076:
	.size	aws_lc_fips_0_13_14_d2i_OCSP_BASICRESP, .-aws_lc_fips_0_13_14_d2i_OCSP_BASICRESP
	.section	.text.aws_lc_fips_0_13_14_i2d_OCSP_BASICRESP,"ax",@progbits
	.globl	aws_lc_fips_0_13_14_i2d_OCSP_BASICRESP
	.type	aws_lc_fips_0_13_14_i2d_OCSP_BASICRESP, @function
aws_lc_fips_0_13_14_i2d_OCSP_BASICRESP:
.LFB1077:
	.loc 1 104 1
	.cfi_startproc
	endbr64
	pushq	%rbp
	.cfi_def_cfa_offset 16
	.cfi_offset 6, -16
	movq	%rsp, %rbp
	.cfi_def_cfa_register 6
	subq	$16, %rsp
	movq	%rdi, -8(%rbp)
	movq	%rsi, -16(%rbp)
	.loc 1 104 1
	movq	aws_lc_fips_0_13_14_OCSP_BASICRESP_it@GOTPCREL(%rip), %rax
	movq	%rax, %rdx
	movq	-16(%rbp), %rcx
	movq	-8(%rbp), %rax
	movq	%rcx, %rsi
	movq	%rax, %rdi
	call	aws_lc_fips_0_13_14_ASN1_item_i2d@PLT
	leave
	.cfi_def_cfa 7, 8
	ret
	.cfi_endproc
.LFE1077:
	.size	aws_lc_fips_0_13_14_i2d_OCSP_BASICRESP, .-aws_lc_fips_0_13_14_i2d_OCSP_BASICRESP
	.section	.text.aws_lc_fips_0_13_14_OCSP_BASICRESP_new,"ax",@progbits
	.globl	aws_lc_fips_0_13_14_OCSP_BASICRESP_new
	.type	aws_lc_fips_0_13_14_OCSP_BASICRESP_new, @function
aws_lc_fips_0_13_14_OCSP_BASICRESP_new:
.LFB1078:
	.loc 1 104 1
	.cfi_startproc
	endbr64
	pushq	%rbp
	.cfi_def_cfa_offset 16
	.cfi_offset 6, -16
	movq	%rsp, %rbp
	.cfi_def_cfa_register 6
	.loc 1 104 1
	movq	aws_lc_fips_0_13_14_OCSP_BASICRESP_it@GOTPCREL(%rip), %rax
	movq	%rax, %rdi
	call	aws_lc_fips_0_13_14_ASN1_item_new@PLT
	popq	%rbp
	.cfi_def_cfa 7, 8
	ret
	.cfi_endproc
.LFE1078:
	.size	aws_lc_fips_0_13_14_OCSP_BASICRESP_new, .-aws_lc_fips_0_13_14_OCSP_BASICRESP_new
	.section	.text.aws_lc_fips_0_13_14_OCSP_BASICRESP_free,"ax",@progbits
	.globl	aws_lc_fips_0_13_14_OCSP_BASICRESP_free
	.type	aws_lc_fips_0_13_14_OCSP_BASICRESP_free, @function
aws_lc_fips_0_13_14_OCSP_BASICRESP_free:
.LFB1079:
	.loc 1 104 1
	.cfi_startproc
	endbr64
	pushq	%rbp
	.cfi_def_cfa_offset 16
	.cfi_offset 6, -16
	movq	%rsp, %rbp
	.cfi_def_cfa_register 6
	subq	$16, %rsp
	movq	%rdi, -8(%rbp)
	.loc 1 104 1
	movq	aws_lc_fips_0_13_14_OCSP_BASICRESP_it@GOTPCREL(%rip), %rax
	movq	%rax, %rdx
	movq	-8(%rbp), %rax
	movq	%rdx, %rsi
	movq	%rax, %rdi
	call	aws_lc_fips_0_13_14_ASN1_item_free@PLT
	leave
	.cfi_def_cfa 7, 8
	ret
	.cfi_endproc
.LFE1079:
	.size	aws_lc_fips_0_13_14_OCSP_BASICRESP_free, .-aws_lc_fips_0_13_14_OCSP_BASICRESP_free
	.section	.text.aws_lc_fips_0_13_14_OCSP_CERTID_dup,"ax",@progbits
	.globl	aws_lc_fips_0_13_14_OCSP_CERTID_dup
	.type	aws_lc_fips_0_13_14_OCSP_CERTID_dup, @function
aws_lc_fips_0_13_14_OCSP_CERTID_dup:
.LFB1080:
	.loc 1 105 1
	.cfi_startproc
	endbr64
	pushq	%rbp
	.cfi_def_cfa_offset 16
	.cfi_offset 6, -16
	movq	%rsp, %rbp
	.cfi_def_cfa_register 6
	subq	$16, %rsp
	movq	%rdi, -8(%rbp)
	.loc 1 105 1
	movq	-8(%rbp), %rax
	movq	aws_lc_fips_0_13_14_OCSP_CERTID_it@GOTPCREL(%rip), %rdx
	movq	%rax, %rsi
	movq	%rdx, %rdi
	call	aws_lc_fips_0_13_14_ASN1_item_dup@PLT
	leave
	.cfi_def_cfa 7, 8
	ret
	.cfi_endproc
.LFE1080:
	.size	aws_lc_fips_0_13_14_OCSP_CERTID_dup, .-aws_lc_fips_0_13_14_OCSP_CERTID_dup
	.section	.text.aws_lc_fips_0_13_14_d2i_OCSP_SINGLERESP,"ax",@progbits
	.globl	aws_lc_fips_0_13_14_d2i_OCSP_SINGLERESP
	.type	aws_lc_fips_0_13_14_d2i_OCSP_SINGLERESP, @function
aws_lc_fips_0_13_14_d2i_OCSP_SINGLERESP:
.LFB1081:
	.loc 1 106 1
	.cfi_startproc
	endbr64
	pushq	%rbp
	.cfi_def_cfa_offset 16
	.cfi_offset 6, -16
	movq	%rsp, %rbp
	.cfi_def_cfa_register 6
	subq	$32, %rsp
	movq	%rdi, -8(%rbp)
	movq	%rsi, -16(%rbp)
	movq	%rdx, -24(%rbp)
	.loc 1 106 1
	movq	aws_lc_fips_0_13_14_OCSP_SINGLERESP_it@GOTPCREL(%rip), %rax
	movq	%rax, %rcx
	movq	-24(%rbp), %rdx
	movq	-16(%rbp), %rsi
	movq	-8(%rbp), %rax
	movq	%rax, %rdi
	call	aws_lc_fips_0_13_14_ASN1_item_d2i@PLT
	leave
	.cfi_def_cfa 7, 8
	ret
	.cfi_endproc
.LFE1081:
	.size	aws_lc_fips_0_13_14_d2i_OCSP_SINGLERESP, .-aws_lc_fips_0_13_14_d2i_OCSP_SINGLERESP
	.section	.text.aws_lc_fips_0_13_14_i2d_OCSP_SINGLERESP,"ax",@progbits
	.globl	aws_lc_fips_0_13_14_i2d_OCSP_SINGLERESP
	.type	aws_lc_fips_0_13_14_i2d_OCSP_SINGLERESP, @function
aws_lc_fips_0_13_14_i2d_OCSP_SINGLERESP:
.LFB1082:
	.loc 1 106 1
	.cfi_startproc
	endbr64
	pushq	%rbp
	.cfi_def_cfa_offset 16
	.cfi_offset 6, -16
	movq	%rsp, %rbp
	.cfi_def_cfa_register 6
	subq	$16, %rsp
	movq	%rdi, -8(%rbp)
	movq	%rsi, -16(%rbp)
	.loc 1 106 1
	movq	aws_lc_fips_0_13_14_OCSP_SINGLERESP_it@GOTPCREL(%rip), %rax
	movq	%rax, %rdx
	movq	-16(%rbp), %rcx
	movq	-8(%rbp), %rax
	movq	%rcx, %rsi
	movq	%rax, %rdi
	call	aws_lc_fips_0_13_14_ASN1_item_i2d@PLT
	leave
	.cfi_def_cfa 7, 8
	ret
	.cfi_endproc
.LFE1082:
	.size	aws_lc_fips_0_13_14_i2d_OCSP_SINGLERESP, .-aws_lc_fips_0_13_14_i2d_OCSP_SINGLERESP
	.section	.text.aws_lc_fips_0_13_14_OCSP_SINGLERESP_new,"ax",@progbits
	.globl	aws_lc_fips_0_13_14_OCSP_SINGLERESP_new
	.type	aws_lc_fips_0_13_14_OCSP_SINGLERESP_new, @function
aws_lc_fips_0_13_14_OCSP_SINGLERESP_new:
.LFB1083:
	.loc 1 106 1
	.cfi_startproc
	endbr64
	pushq	%rbp
	.cfi_def_cfa_offset 16
	.cfi_offset 6, -16
	movq	%rsp, %rbp
	.cfi_def_cfa_register 6
	.loc 1 106 1
	movq	aws_lc_fips_0_13_14_OCSP_SINGLERESP_it@GOTPCREL(%rip), %rax
	movq	%rax, %rdi
	call	aws_lc_fips_0_13_14_ASN1_item_new@PLT
	popq	%rbp
	.cfi_def_cfa 7, 8
	ret
	.cfi_endproc
.LFE1083:
	.size	aws_lc_fips_0_13_14_OCSP_SINGLERESP_new, .-aws_lc_fips_0_13_14_OCSP_SINGLERESP_new
	.section	.text.aws_lc_fips_0_13_14_OCSP_SINGLERESP_free,"ax",@progbits
	.globl	aws_lc_fips_0_13_14_OCSP_SINGLERESP_free
	.type	aws_lc_fips_0_13_14_OCSP_SINGLERESP_free, @function
aws_lc_fips_0_13_14_OCSP_SINGLERESP_free:
.LFB1084:
	.loc 1 106 1
	.cfi_startproc
	endbr64
	pushq	%rbp
	.cfi_def_cfa_offset 16
	.cfi_offset 6, -16
	movq	%rsp, %rbp
	.cfi_def_cfa_register 6
	subq	$16, %rsp
	movq	%rdi, -8(%rbp)
	.loc 1 106 1
	movq	aws_lc_fips_0_13_14_OCSP_SINGLERESP_it@GOTPCREL(%rip), %rax
	movq	%rax, %rdx
	movq	-8(%rbp), %rax
	movq	%rdx, %rsi
	movq	%rax, %rdi
	call	aws_lc_fips_0_13_14_ASN1_item_free@PLT
	leave
	.cfi_def_cfa 7, 8
	ret
	.cfi_endproc
.LFE1084:
	.size	aws_lc_fips_0_13_14_OCSP_SINGLERESP_free, .-aws_lc_fips_0_13_14_OCSP_SINGLERESP_free
	.section	.text.aws_lc_fips_0_13_14_d2i_OCSP_RESPONSE_bio,"ax",@progbits
	.globl	aws_lc_fips_0_13_14_d2i_OCSP_RESPONSE_bio
	.type	aws_lc_fips_0_13_14_d2i_OCSP_RESPONSE_bio, @function
aws_lc_fips_0_13_14_d2i_OCSP_RESPONSE_bio:
.LFB1085:
	.loc 1 108 70
	.cfi_startproc
	endbr64
	pushq	%rbp
	.cfi_def_cfa_offset 16
	.cfi_offset 6, -16
	movq	%rsp, %rbp
	.cfi_def_cfa_register 6
	subq	$16, %rsp
	movq	%rdi, -8(%rbp)
	movq	%rsi, -16(%rbp)
	.loc 1 109 10
	movq	-16(%rbp), %rdx
	movq	-8(%rbp), %rax
	movq	aws_lc_fips_0_13_14_OCSP_RESPONSE_it@GOTPCREL(%rip), %rcx
	movq	%rax, %rsi
	movq	%rcx, %rdi
	call	aws_lc_fips_0_13_14_ASN1_item_d2i_bio@PLT
	.loc 1 110 1
	leave
	.cfi_def_cfa 7, 8
	ret
	.cfi_endproc
.LFE1085:
	.size	aws_lc_fips_0_13_14_d2i_OCSP_RESPONSE_bio, .-aws_lc_fips_0_13_14_d2i_OCSP_RESPONSE_bio
	.section	.text.aws_lc_fips_0_13_14_i2d_OCSP_RESPONSE_bio,"ax",@progbits
	.globl	aws_lc_fips_0_13_14_i2d_OCSP_RESPONSE_bio
	.type	aws_lc_fips_0_13_14_i2d_OCSP_RESPONSE_bio, @function
aws_lc_fips_0_13_14_i2d_OCSP_RESPONSE_bio:
.LFB1086:
	.loc 1 112 58
	.cfi_startproc
	endbr64
	pushq	%rbp
	.cfi_def_cfa_offset 16
	.cfi_offset 6, -16
	movq	%rsp, %rbp
	.cfi_def_cfa_register 6
	subq	$16, %rsp
	movq	%rdi, -8(%rbp)
	movq	%rsi, -16(%rbp)
	.loc 1 113 10
	movq	-16(%rbp), %rdx
	movq	-8(%rbp), %rax
	movq	aws_lc_fips_0_13_14_OCSP_RESPONSE_it@GOTPCREL(%rip), %rcx
	movq	%rax, %rsi
	movq	%rcx, %rdi
	call	aws_lc_fips_0_13_14_ASN1_item_i2d_bio@PLT
	.loc 1 114 1
	leave
	.cfi_def_cfa 7, 8
	ret
	.cfi_endproc
.LFE1086:
	.size	aws_lc_fips_0_13_14_i2d_OCSP_RESPONSE_bio, .-aws_lc_fips_0_13_14_i2d_OCSP_RESPONSE_bio
	.section	.text.aws_lc_fips_0_13_14_d2i_OCSP_REQUEST_bio,"ax",@progbits
	.globl	aws_lc_fips_0_13_14_d2i_OCSP_REQUEST_bio
	.type	aws_lc_fips_0_13_14_d2i_OCSP_REQUEST_bio, @function
aws_lc_fips_0_13_14_d2i_OCSP_REQUEST_bio:
.LFB1087:
	.loc 1 116 66
	.cfi_startproc
	endbr64
	pushq	%rbp
	.cfi_def_cfa_offset 16
	.cfi_offset 6, -16
	movq	%rsp, %rbp
	.cfi_def_cfa_register 6
	subq	$16, %rsp
	movq	%rdi, -8(%rbp)
	movq	%rsi, -16(%rbp)
	.loc 1 117 10
	movq	-16(%rbp), %rdx
	movq	-8(%rbp), %rax
	movq	aws_lc_fips_0_13_14_OCSP_REQUEST_it@GOTPCREL(%rip), %rcx
	movq	%rax, %rsi
	movq	%rcx, %rdi
	call	aws_lc_fips_0_13_14_ASN1_item_d2i_bio@PLT
	.loc 1 118 1
	leave
	.cfi_def_cfa 7, 8
	ret
	.cfi_endproc
.LFE1087:
	.size	aws_lc_fips_0_13_14_d2i_OCSP_REQUEST_bio, .-aws_lc_fips_0_13_14_d2i_OCSP_REQUEST_bio
	.section	.text.aws_lc_fips_0_13_14_i2d_OCSP_REQUEST_bio,"ax",@progbits
	.globl	aws_lc_fips_0_13_14_i2d_OCSP_REQUEST_bio
	.type	aws_lc_fips_0_13_14_i2d_OCSP_REQUEST_bio, @function
aws_lc_fips_0_13_14_i2d_OCSP_REQUEST_bio:
.LFB1088:
	.loc 1 120 55
	.cfi_startproc
	endbr64
	pushq	%rbp
	.cfi_def_cfa_offset 16
	.cfi_offset 6, -16
	movq	%rsp, %rbp
	.cfi_def_cfa_register 6
	subq	$16, %rsp
	movq	%rdi, -8(%rbp)
	movq	%rsi, -16(%rbp)
	.loc 1 121 10
	movq	-16(%rbp), %rdx
	movq	-8(%rbp), %rax
	movq	aws_lc_fips_0_13_14_OCSP_REQUEST_it@GOTPCREL(%rip), %rcx
	movq	%rax, %rsi
	movq	%rcx, %rdi
	call	aws_lc_fips_0_13_14_ASN1_item_i2d_bio@PLT
	.loc 1 122 1
	leave
	.cfi_def_cfa 7, 8
	ret
	.cfi_endproc
.LFE1088:
	.size	aws_lc_fips_0_13_14_i2d_OCSP_REQUEST_bio, .-aws_lc_fips_0_13_14_i2d_OCSP_REQUEST_bio
	.text
.Letext0:
	.file 2 "/usr/lib/gcc/x86_64-linux-gnu/15/include/stddef.h"
	.file 3 "/usr/include/x86_64-linux-gnu/bits/types.h"
	.file 4 "/usr/include/x86_64-linux-gnu/bits/stdint-uintn.h"
	.file 5 "/home/jdn/.cargo/registry/src/index.crates.io-1949cf8c6b5b557f/aws-lc-fips-sys-0.13.14/aws-lc/include/openssl/base.h"
	.file 6 "/home/jdn/.cargo/registry/src/index.crates.io-1949cf8c6b5b557f/aws-lc-fips-sys-0.13.14/aws-lc/include/openssl/asn1t.h"
	.file 7 "/home/jdn/.cargo/registry/src/index.crates.io-1949cf8c6b5b557f/aws-lc-fips-sys-0.13.14/aws-lc/crypto/ocsp/../x509/../asn1/internal.h"
	.file 8 "/home/jdn/.cargo/registry/src/index.crates.io-1949cf8c6b5b557f/aws-lc-fips-sys-0.13.14/aws-lc/include/openssl/asn1.h"
	.file 9 "/home/jdn/.cargo/registry/src/index.crates.io-1949cf8c6b5b557f/aws-lc-fips-sys-0.13.14/aws-lc/include/openssl/x509.h"
	.file 10 "/home/jdn/.cargo/registry/src/index.crates.io-1949cf8c6b5b557f/aws-lc-fips-sys-0.13.14/aws-lc/crypto/ocsp/../x509/internal.h"
	.file 11 "/home/jdn/.cargo/registry/src/index.crates.io-1949cf8c6b5b557f/aws-lc-fips-sys-0.13.14/aws-lc/include/openssl/bio.h"
	.file 12 "/home/jdn/.cargo/registry/src/index.crates.io-1949cf8c6b5b557f/aws-lc-fips-sys-0.13.14/aws-lc/include/openssl/buf.h"
	.file 13 "/home/jdn/.cargo/registry/src/index.crates.io-1949cf8c6b5b557f/aws-lc-fips-sys-0.13.14/aws-lc/include/openssl/thread.h"
	.file 14 "/home/jdn/.cargo/registry/src/index.crates.io-1949cf8c6b5b557f/aws-lc-fips-sys-0.13.14/aws-lc/include/openssl/ex_data.h"
	.file 15 "/home/jdn/.cargo/registry/src/index.crates.io-1949cf8c6b5b557f/aws-lc-fips-sys-0.13.14/aws-lc/include/openssl/ocsp.h"
	.file 16 "/home/jdn/.cargo/registry/src/index.crates.io-1949cf8c6b5b557f/aws-lc-fips-sys-0.13.14/aws-lc/crypto/ocsp/internal.h"
	.section	.note.GNU-stack,"",@progbits
	.section	.note.gnu.property,"a"
	.align 8
	.long	1f - 0f
	.long	4f - 1f
	.long	5
0:
	.string	"GNU"
1:
	.align 8
	.long	0xc0000002
	.long	3f - 2f
2:
	.long	0x3
3:
	.align 8
4:
