	.file	"p5_pbev2.c"
	.text
.Ltext0:
	.file 0 "/mnt/HARDONE/NSI_Repos/tacvoice/gateway/target/debug/build/aws-lc-fips-sys-802b9ac702614b53/out/build/aws-lc/crypto" "/home/jdn/.cargo/registry/src/index.crates.io-1949cf8c6b5b557f/aws-lc-fips-sys-0.13.14/aws-lc/crypto/pkcs8/p5_pbev2.c"
	.section	.rodata.kPBKDF2,"a"
	.align 8
	.type	kPBKDF2, @object
	.size	kPBKDF2, 9
kPBKDF2:
	.base64	"KoZIhvcNAQUM"
	.section	.rodata.kPBES2,"a"
	.align 8
	.type	kPBES2, @object
	.size	kPBES2, 9
kPBES2:
	.base64	"KoZIhvcNAQUN"
	.section	.rodata.kHMACWithSHA1,"a"
	.align 8
	.type	kHMACWithSHA1, @object
	.size	kHMACWithSHA1, 8
kHMACWithSHA1:
	.base64	"KoZIhvcNAgc="
	.section	.rodata.kHMACWithSHA256,"a"
	.align 8
	.type	kHMACWithSHA256, @object
	.size	kHMACWithSHA256, 8
kHMACWithSHA256:
	.base64	"KoZIhvcNAgk="
	.section	.data.rel.ro.kCipherOIDs,"aw"
	.align 32
	.type	kCipherOIDs, @object
	.size	kCipherOIDs, 120
kCipherOIDs:
	.base64	"KoZIhvcNAwIA"
	.byte	8
	.zero	2
	.long	37
	.quad	aws_lc_fips_0_13_14_EVP_rc2_cbc
	.base64	"KoZIhvcNAwcA"
	.byte	8
	.zero	2
	.long	44
	.quad	aws_lc_fips_0_13_14_EVP_des_ede3_cbc
	.base64	"YIZIAWUDBAEC"
	.byte	9
	.zero	2
	.long	419
	.quad	aws_lc_fips_0_13_14_EVP_aes_128_cbc
	.base64	"YIZIAWUDBAEW"
	.byte	9
	.zero	2
	.long	423
	.quad	aws_lc_fips_0_13_14_EVP_aes_192_cbc
	.base64	"YIZIAWUDBAEq"
	.byte	9
	.zero	2
	.long	427
	.quad	aws_lc_fips_0_13_14_EVP_aes_256_cbc
	.section	.text.cbs_to_cipher,"ax",@progbits
	.type	cbs_to_cipher, @function
cbs_to_cipher:
.LFB878:
	.file 1 "/home/jdn/.cargo/registry/src/index.crates.io-1949cf8c6b5b557f/aws-lc-fips-sys-0.13.14/aws-lc/crypto/pkcs8/p5_pbev2.c"
	.loc 1 121 56
	.cfi_startproc
	endbr64
	pushq	%rbp
	.cfi_def_cfa_offset 16
	.cfi_offset 6, -16
	movq	%rsp, %rbp
	.cfi_def_cfa_register 6
	subq	$32, %rsp
	movq	%rdi, -24(%rbp)
.LBB2:
	.loc 1 122 15
	movq	$0, -8(%rbp)
	.loc 1 122 3
	jmp	.L2
.L5:
	.loc 1 123 62
	movq	-8(%rbp), %rdx
	movq	%rdx, %rax
	addq	%rax, %rax
	addq	%rdx, %rax
	salq	$3, %rax
	movq	%rax, %rdx
	leaq	9+kCipherOIDs(%rip), %rax
	movzbl	(%rdx,%rax), %eax
	.loc 1 123 9
	movzbl	%al, %ecx
	.loc 1 123 42
	movq	-8(%rbp), %rdx
	movq	%rdx, %rax
	addq	%rax, %rax
	addq	%rdx, %rax
	salq	$3, %rax
	leaq	kCipherOIDs(%rip), %rdx
	leaq	(%rax,%rdx), %rsi
	.loc 1 123 9
	movq	-24(%rbp), %rax
	movq	%rcx, %rdx
	movq	%rax, %rdi
	call	aws_lc_fips_0_13_14_CBS_mem_equal@PLT
	.loc 1 123 8 discriminator 1
	testl	%eax, %eax
	je	.L3
	.loc 1 124 28
	movq	-8(%rbp), %rdx
	movq	%rdx, %rax
	addq	%rax, %rax
	addq	%rdx, %rax
	salq	$3, %rax
	movq	%rax, %rdx
	leaq	16+kCipherOIDs(%rip), %rax
	movq	(%rdx,%rax), %rax
	.loc 1 124 14
	call	*%rax
.LVL0:
	jmp	.L4
.L3:
	.loc 1 122 60 discriminator 2
	addq	$1, -8(%rbp)
.L2:
	.loc 1 122 24 discriminator 1
	cmpq	$4, -8(%rbp)
	jbe	.L5
.LBE2:
	.loc 1 128 10
	movl	$0, %eax
.L4:
	.loc 1 129 1
	leave
	.cfi_def_cfa 7, 8
	ret
	.cfi_endproc
.LFE878:
	.size	cbs_to_cipher, .-cbs_to_cipher
	.section	.rodata
	.align 8
.LC0:
	.string	"/home/jdn/.cargo/registry/src/index.crates.io-1949cf8c6b5b557f/aws-lc-fips-sys-0.13.14/aws-lc/crypto/pkcs8/p5_pbev2.c"
	.section	.text.add_cipher_oid,"ax",@progbits
	.type	add_cipher_oid, @function
add_cipher_oid:
.LFB879:
	.loc 1 131 46
	.cfi_startproc
	endbr64
	pushq	%rbp
	.cfi_def_cfa_offset 16
	.cfi_offset 6, -16
	movq	%rsp, %rbp
	.cfi_def_cfa_register 6
	subq	$96, %rsp
	movq	%rdi, -88(%rbp)
	movl	%esi, -92(%rbp)
	.loc 1 131 46
	movq	%fs:40, %rax
	movq	%rax, -8(%rbp)
	xorl	%eax, %eax
.LBB3:
	.loc 1 132 15
	movq	$0, -72(%rbp)
	.loc 1 132 3
	jmp	.L7
.L12:
	.loc 1 133 23
	movq	-72(%rbp), %rdx
	movq	%rdx, %rax
	addq	%rax, %rax
	addq	%rdx, %rax
	salq	$3, %rax
	movq	%rax, %rdx
	leaq	12+kCipherOIDs(%rip), %rax
	movl	(%rdx,%rax), %eax
	.loc 1 133 8
	cmpl	%eax, -92(%rbp)
	jne	.L8
.LBB4:
	.loc 1 135 14
	leaq	-64(%rbp), %rcx
	movq	-88(%rbp), %rax
	movl	$6, %edx
	movq	%rcx, %rsi
	movq	%rax, %rdi
	call	aws_lc_fips_0_13_14_CBB_add_asn1@PLT
	.loc 1 137 52
	testl	%eax, %eax
	je	.L9
	.loc 1 137 42 discriminator 1
	movq	-72(%rbp), %rdx
	movq	%rdx, %rax
	addq	%rax, %rax
	addq	%rdx, %rax
	salq	$3, %rax
	movq	%rax, %rdx
	leaq	9+kCipherOIDs(%rip), %rax
	movzbl	(%rdx,%rax), %eax
	.loc 1 136 14
	movzbl	%al, %ecx
	.loc 1 136 50
	movq	-72(%rbp), %rdx
	movq	%rdx, %rax
	addq	%rax, %rax
	addq	%rdx, %rax
	salq	$3, %rax
	leaq	kCipherOIDs(%rip), %rdx
	leaq	(%rax,%rdx), %rsi
	.loc 1 136 14
	leaq	-64(%rbp), %rax
	movq	%rcx, %rdx
	movq	%rax, %rdi
	call	aws_lc_fips_0_13_14_CBB_add_bytes@PLT
	.loc 1 135 57
	testl	%eax, %eax
	je	.L9
	.loc 1 138 14
	movq	-88(%rbp), %rax
	movq	%rax, %rdi
	call	aws_lc_fips_0_13_14_CBB_flush@PLT
	.loc 1 137 52 discriminator 4
	testl	%eax, %eax
	je	.L9
	.loc 1 137 52 is_stmt 0 discriminator 3
	movl	$1, %eax
	.loc 1 137 52
	jmp	.L11
.L9:
	.loc 1 137 52 discriminator 2
	movl	$0, %eax
	.loc 1 137 52
	jmp	.L11
.L8:
.LBE4:
	.loc 1 132 60 is_stmt 1 discriminator 2
	addq	$1, -72(%rbp)
.L7:
	.loc 1 132 24 discriminator 1
	cmpq	$4, -72(%rbp)
	jbe	.L12
.LBE3:
	.loc 1 142 3
	leaq	.LC0(%rip), %rax
	movl	$142, %r8d
	movq	%rax, %rcx
	movl	$127, %edx
	movl	$0, %esi
	movl	$19, %edi
	call	aws_lc_fips_0_13_14_ERR_put_error@PLT
	.loc 1 143 10
	movl	$0, %eax
.L11:
	.loc 1 144 1
	movq	-8(%rbp), %rdx
	subq	%fs:40, %rdx
	je	.L13
	call	__stack_chk_fail@PLT
.L13:
	leave
	.cfi_def_cfa 7, 8
	ret
	.cfi_endproc
.LFE879:
	.size	add_cipher_oid, .-add_cipher_oid
	.section	.text.pkcs5_pbe2_cipher_init,"ax",@progbits
	.type	pkcs5_pbe2_cipher_init, @function
pkcs5_pbe2_cipher_init:
.LFB880:
	.loc 1 150 78
	.cfi_startproc
	endbr64
	pushq	%rbp
	.cfi_def_cfa_offset 16
	.cfi_offset 6, -16
	movq	%rsp, %rbp
	.cfi_def_cfa_register 6
	subq	$160, %rsp
	movq	%rdi, -104(%rbp)
	movq	%rsi, -112(%rbp)
	movq	%rdx, -120(%rbp)
	movl	%ecx, -124(%rbp)
	movq	%r8, -136(%rbp)
	movq	%r9, -144(%rbp)
	movq	16(%rbp), %rax
	movq	%rax, -152(%rbp)
	movq	32(%rbp), %rax
	movq	%rax, -160(%rbp)
	.loc 1 150 78
	movq	%fs:40, %rax
	movq	%rax, -8(%rbp)
	xorl	%eax, %eax
	.loc 1 151 17
	movq	-112(%rbp), %rax
	movq	%rax, %rdi
	call	aws_lc_fips_0_13_14_EVP_CIPHER_iv_length@PLT
	.loc 1 151 17 is_stmt 0 discriminator 1
	movl	%eax, %eax
	.loc 1 151 6 is_stmt 1 discriminator 1
	cmpq	%rax, 40(%rbp)
	je	.L15
	.loc 1 152 5
	leaq	.LC0(%rip), %rax
	movl	$152, %r8d
	movq	%rax, %rcx
	movl	$107, %edx
	movl	$0, %esi
	movl	$19, %edi
	call	aws_lc_fips_0_13_14_ERR_put_error@PLT
	.loc 1 153 12
	movl	$0, %eax
	jmp	.L19
.L15:
	.loc 1 158 42
	movq	-112(%rbp), %rax
	movq	%rax, %rdi
	call	aws_lc_fips_0_13_14_EVP_CIPHER_key_length@PLT
	.loc 1 157 13
	movl	%eax, %r10d
	movq	-120(%rbp), %r9
	movl	-124(%rbp), %r8d
	movq	24(%rbp), %rcx
	movq	-152(%rbp), %rdx
	movq	-144(%rbp), %rsi
	movq	-136(%rbp), %rax
	leaq	-80(%rbp), %rdi
	pushq	%rdi
	pushq	%r10
	movq	%rax, %rdi
	call	aws_lc_fips_0_13_14_PKCS5_PBKDF2_HMAC@PLT
	addq	$16, %rsp
	.loc 1 158 78
	testl	%eax, %eax
	je	.L17
	.loc 1 159 13
	movl	48(%rbp), %edi
	movq	-160(%rbp), %rcx
	leaq	-80(%rbp), %rdx
	movq	-112(%rbp), %rsi
	movq	-104(%rbp), %rax
	movl	%edi, %r9d
	movq	%rcx, %r8
	movq	%rdx, %rcx
	movl	$0, %edx
	movq	%rax, %rdi
	call	aws_lc_fips_0_13_14_EVP_CipherInit_ex@PLT
	.loc 1 158 78 discriminator 2
	testl	%eax, %eax
	je	.L17
	.loc 1 158 78 is_stmt 0 discriminator 4
	movl	$1, %eax
	.loc 1 158 78
	jmp	.L18
.L17:
	.loc 1 158 78 discriminator 5
	movl	$0, %eax
.L18:
	.loc 1 157 7 is_stmt 1
	movl	%eax, -84(%rbp)
	.loc 1 160 3
	leaq	-80(%rbp), %rax
	movl	$64, %esi
	movq	%rax, %rdi
	call	aws_lc_fips_0_13_14_OPENSSL_cleanse@PLT
	.loc 1 161 10
	movl	-84(%rbp), %eax
.L19:
	.loc 1 162 1
	movq	-8(%rbp), %rdx
	subq	%fs:40, %rdx
	je	.L20
	call	__stack_chk_fail@PLT
.L20:
	leave
	.cfi_def_cfa 7, 8
	ret
	.cfi_endproc
.LFE880:
	.size	pkcs5_pbe2_cipher_init, .-pkcs5_pbe2_cipher_init
	.section	.text.aws_lc_fips_0_13_14_PKCS5_pbe2_encrypt_init,"ax",@progbits
	.globl	aws_lc_fips_0_13_14_PKCS5_pbe2_encrypt_init
	.hidden	aws_lc_fips_0_13_14_PKCS5_pbe2_encrypt_init
	.type	aws_lc_fips_0_13_14_PKCS5_pbe2_encrypt_init, @function
aws_lc_fips_0_13_14_PKCS5_pbe2_encrypt_init:
.LFB881:
	.loc 1 167 67
	.cfi_startproc
	endbr64
	pushq	%rbp
	.cfi_def_cfa_offset 16
	.cfi_offset 6, -16
	movq	%rsp, %rbp
	.cfi_def_cfa_register 6
	pushq	%rbx
	subq	$552, %rsp
	.cfi_offset 3, -24
	movq	%rdi, -504(%rbp)
	movq	%rsi, -512(%rbp)
	movq	%rdx, -520(%rbp)
	movl	%ecx, -524(%rbp)
	movq	%r8, -536(%rbp)
	movq	%r9, -544(%rbp)
	movq	16(%rbp), %rax
	movq	%rax, -552(%rbp)
	.loc 1 167 67
	movq	%fs:40, %rax
	movq	%rax, -24(%rbp)
	xorl	%eax, %eax
	.loc 1 168 20
	movq	-520(%rbp), %rax
	movq	%rax, %rdi
	call	aws_lc_fips_0_13_14_EVP_CIPHER_nid@PLT
	movl	%eax, -484(%rbp)
	.loc 1 169 6
	cmpl	$0, -484(%rbp)
	jne	.L22
	.loc 1 170 5
	leaq	.LC0(%rip), %rax
	movl	$170, %r8d
	movq	%rax, %rcx
	movl	$102, %edx
	movl	$0, %esi
	movl	$19, %edi
	call	aws_lc_fips_0_13_14_ERR_put_error@PLT
	.loc 1 171 12
	movl	$0, %eax
	jmp	.L28
.L22:
	.loc 1 176 23
	movq	-520(%rbp), %rax
	movq	%rax, %rdi
	call	aws_lc_fips_0_13_14_EVP_CIPHER_iv_length@PLT
	.loc 1 176 8 discriminator 1
	movl	%eax, %edx
	leaq	-48(%rbp), %rax
	movq	%rdx, %rsi
	movq	%rax, %rdi
	call	aws_lc_fips_0_13_14_RAND_bytes@PLT
	.loc 1 176 6 discriminator 2
	testl	%eax, %eax
	jne	.L24
	.loc 1 177 12
	movl	$0, %eax
	jmp	.L28
.L24:
	.loc 1 183 8
	leaq	-480(%rbp), %rcx
	movq	-504(%rbp), %rax
	movl	$536870928, %edx
	movq	%rcx, %rsi
	movq	%rax, %rdi
	call	aws_lc_fips_0_13_14_CBB_add_asn1@PLT
	.loc 1 183 6 discriminator 1
	testl	%eax, %eax
	je	.L25
	.loc 1 184 8
	leaq	-432(%rbp), %rcx
	leaq	-480(%rbp), %rax
	movl	$6, %edx
	movq	%rcx, %rsi
	movq	%rax, %rdi
	call	aws_lc_fips_0_13_14_CBB_add_asn1@PLT
	.loc 1 183 57 discriminator 2
	testl	%eax, %eax
	je	.L25
	.loc 1 185 8
	leaq	kPBES2(%rip), %rcx
	leaq	-432(%rbp), %rax
	movl	$9, %edx
	movq	%rcx, %rsi
	movq	%rax, %rdi
	call	aws_lc_fips_0_13_14_CBB_add_bytes@PLT
	.loc 1 184 56
	testl	%eax, %eax
	je	.L25
	.loc 1 186 8
	leaq	-384(%rbp), %rcx
	leaq	-480(%rbp), %rax
	movl	$536870928, %edx
	movq	%rcx, %rsi
	movq	%rax, %rdi
	call	aws_lc_fips_0_13_14_CBB_add_asn1@PLT
	.loc 1 185 52
	testl	%eax, %eax
	je	.L25
	.loc 1 187 8
	leaq	-336(%rbp), %rcx
	leaq	-384(%rbp), %rax
	movl	$536870928, %edx
	movq	%rcx, %rsi
	movq	%rax, %rdi
	call	aws_lc_fips_0_13_14_CBB_add_asn1@PLT
	.loc 1 186 60
	testl	%eax, %eax
	je	.L25
	.loc 1 188 8
	leaq	-288(%rbp), %rcx
	leaq	-336(%rbp), %rax
	movl	$6, %edx
	movq	%rcx, %rsi
	movq	%rax, %rdi
	call	aws_lc_fips_0_13_14_CBB_add_asn1@PLT
	.loc 1 187 54
	testl	%eax, %eax
	je	.L25
	.loc 1 189 8
	leaq	kPBKDF2(%rip), %rcx
	leaq	-288(%rbp), %rax
	movl	$9, %edx
	movq	%rcx, %rsi
	movq	%rax, %rdi
	call	aws_lc_fips_0_13_14_CBB_add_bytes@PLT
	.loc 1 188 54
	testl	%eax, %eax
	je	.L25
	.loc 1 190 8
	leaq	-240(%rbp), %rcx
	leaq	-336(%rbp), %rax
	movl	$536870928, %edx
	movq	%rcx, %rsi
	movq	%rax, %rdi
	call	aws_lc_fips_0_13_14_CBB_add_asn1@PLT
	.loc 1 189 58
	testl	%eax, %eax
	je	.L25
	.loc 1 191 8
	leaq	-192(%rbp), %rcx
	leaq	-240(%rbp), %rax
	movl	$4, %edx
	movq	%rcx, %rsi
	movq	%rax, %rdi
	call	aws_lc_fips_0_13_14_CBB_add_asn1@PLT
	.loc 1 190 58
	testl	%eax, %eax
	je	.L25
	.loc 1 192 8
	movq	24(%rbp), %rdx
	movq	-552(%rbp), %rcx
	leaq	-192(%rbp), %rax
	movq	%rcx, %rsi
	movq	%rax, %rdi
	call	aws_lc_fips_0_13_14_CBB_add_bytes@PLT
	.loc 1 191 66
	testl	%eax, %eax
	je	.L25
	.loc 1 193 8
	movl	-524(%rbp), %edx
	leaq	-240(%rbp), %rax
	movq	%rdx, %rsi
	movq	%rax, %rdi
	call	aws_lc_fips_0_13_14_CBB_add_asn1_uint64@PLT
	.loc 1 192 49
	testl	%eax, %eax
	je	.L25
	.loc 1 193 52
	cmpl	$37, -484(%rbp)
	jne	.L26
	.loc 1 196 41
	movq	-520(%rbp), %rax
	movq	%rax, %rdi
	call	aws_lc_fips_0_13_14_EVP_CIPHER_key_length@PLT
	.loc 1 196 9 discriminator 1
	movl	%eax, %edx
	leaq	-240(%rbp), %rax
	movq	%rdx, %rsi
	movq	%rax, %rdi
	call	aws_lc_fips_0_13_14_CBB_add_asn1_uint64@PLT
	.loc 1 195 34
	testl	%eax, %eax
	je	.L25
.L26:
	.loc 1 198 8
	leaq	-144(%rbp), %rcx
	leaq	-384(%rbp), %rax
	movl	$536870928, %edx
	movq	%rcx, %rsi
	movq	%rax, %rdi
	call	aws_lc_fips_0_13_14_CBB_add_asn1@PLT
	.loc 1 196 73
	testl	%eax, %eax
	je	.L25
	.loc 1 199 8
	movl	-484(%rbp), %edx
	leaq	-144(%rbp), %rax
	movl	%edx, %esi
	movq	%rax, %rdi
	call	add_cipher_oid
	.loc 1 198 61
	testl	%eax, %eax
	je	.L25
	.loc 1 202 8
	leaq	-96(%rbp), %rcx
	leaq	-144(%rbp), %rax
	movl	$4, %edx
	movq	%rcx, %rsi
	movq	%rax, %rdi
	call	aws_lc_fips_0_13_14_CBB_add_asn1@PLT
	.loc 1 199 48
	testl	%eax, %eax
	je	.L25
	.loc 1 203 35
	movq	-520(%rbp), %rax
	movq	%rax, %rdi
	call	aws_lc_fips_0_13_14_EVP_CIPHER_iv_length@PLT
	.loc 1 203 8 discriminator 1
	movl	%eax, %edx
	leaq	-48(%rbp), %rcx
	leaq	-96(%rbp), %rax
	movq	%rcx, %rsi
	movq	%rax, %rdi
	call	aws_lc_fips_0_13_14_CBB_add_bytes@PLT
	.loc 1 202 65
	testl	%eax, %eax
	je	.L25
	.loc 1 204 8
	movq	-504(%rbp), %rax
	movq	%rax, %rdi
	call	aws_lc_fips_0_13_14_CBB_flush@PLT
	.loc 1 203 65
	testl	%eax, %eax
	jne	.L27
.L25:
	.loc 1 205 12
	movl	$0, %eax
	jmp	.L28
.L27:
	.loc 1 210 33
	movq	-520(%rbp), %rax
	movq	%rax, %rdi
	call	aws_lc_fips_0_13_14_EVP_CIPHER_iv_length@PLT
	.loc 1 208 10
	movl	%eax, %ebx
	call	aws_lc_fips_0_13_14_EVP_sha1@PLT
	movq	%rax, %rdi
	.loc 1 208 10 is_stmt 0 discriminator 1
	movq	-544(%rbp), %r9
	movq	-536(%rbp), %r8
	movl	-524(%rbp), %edx
	movq	-520(%rbp), %rsi
	movq	-512(%rbp), %rax
	subq	$8, %rsp
	pushq	$1
	pushq	%rbx
	leaq	-48(%rbp), %rcx
	pushq	%rcx
	pushq	24(%rbp)
	pushq	-552(%rbp)
	movl	%edx, %ecx
	movq	%rdi, %rdx
	movq	%rax, %rdi
	call	pkcs5_pbe2_cipher_init
	addq	$48, %rsp
.L28:
	.loc 1 211 1 is_stmt 1
	movq	-24(%rbp), %rdx
	subq	%fs:40, %rdx
	je	.L29
	call	__stack_chk_fail@PLT
.L29:
	movq	-8(%rbp), %rbx
	leave
	.cfi_def_cfa 7, 8
	ret
	.cfi_endproc
.LFE881:
	.size	aws_lc_fips_0_13_14_PKCS5_pbe2_encrypt_init, .-aws_lc_fips_0_13_14_PKCS5_pbe2_encrypt_init
	.section	.text.aws_lc_fips_0_13_14_PKCS5_pbe2_decrypt_init,"ax",@progbits
	.globl	aws_lc_fips_0_13_14_PKCS5_pbe2_decrypt_init
	.hidden	aws_lc_fips_0_13_14_PKCS5_pbe2_decrypt_init
	.type	aws_lc_fips_0_13_14_PKCS5_pbe2_decrypt_init, @function
aws_lc_fips_0_13_14_PKCS5_pbe2_decrypt_init:
.LFB882:
	.loc 1 214 76
	.cfi_startproc
	endbr64
	pushq	%rbp
	.cfi_def_cfa_offset 16
	.cfi_offset 6, -16
	movq	%rsp, %rbp
	.cfi_def_cfa_register 6
	pushq	%r13
	pushq	%r12
	pushq	%rbx
	subq	$264, %rsp
	.cfi_offset 13, -24
	.cfi_offset 12, -32
	.cfi_offset 3, -40
	movq	%rdi, -248(%rbp)
	movq	%rsi, -256(%rbp)
	movq	%rdx, -264(%rbp)
	movq	%rcx, -272(%rbp)
	movq	%r8, -280(%rbp)
	.loc 1 214 76
	movq	%fs:40, %rax
	movq	%rax, -40(%rbp)
	xorl	%eax, %eax
	.loc 1 216 8
	leaq	-208(%rbp), %rcx
	movq	-280(%rbp), %rax
	movl	$536870928, %edx
	movq	%rcx, %rsi
	movq	%rax, %rdi
	call	aws_lc_fips_0_13_14_CBS_get_asn1@PLT
	.loc 1 216 6 discriminator 1
	testl	%eax, %eax
	je	.L31
	.loc 1 217 7
	movq	-280(%rbp), %rax
	movq	%rax, %rdi
	call	aws_lc_fips_0_13_14_CBS_len@PLT
	.loc 1 216 59 discriminator 2
	testq	%rax, %rax
	jne	.L31
	.loc 1 218 8
	leaq	-192(%rbp), %rcx
	leaq	-208(%rbp), %rax
	movl	$536870928, %edx
	movq	%rcx, %rsi
	movq	%rax, %rdi
	call	aws_lc_fips_0_13_14_CBS_get_asn1@PLT
	.loc 1 217 27
	testl	%eax, %eax
	je	.L31
	.loc 1 219 8
	leaq	-160(%rbp), %rcx
	leaq	-208(%rbp), %rax
	movl	$536870928, %edx
	movq	%rcx, %rsi
	movq	%rax, %rdi
	call	aws_lc_fips_0_13_14_CBS_get_asn1@PLT
	.loc 1 218 58
	testl	%eax, %eax
	je	.L31
	.loc 1 220 7
	leaq	-208(%rbp), %rax
	movq	%rax, %rdi
	call	aws_lc_fips_0_13_14_CBS_len@PLT
	.loc 1 219 65
	testq	%rax, %rax
	jne	.L31
	.loc 1 221 8
	leaq	-176(%rbp), %rcx
	leaq	-192(%rbp), %rax
	movl	$6, %edx
	movq	%rcx, %rsi
	movq	%rax, %rdi
	call	aws_lc_fips_0_13_14_CBS_get_asn1@PLT
	.loc 1 220 32
	testl	%eax, %eax
	je	.L31
	.loc 1 222 8
	leaq	-144(%rbp), %rcx
	leaq	-160(%rbp), %rax
	movl	$6, %edx
	movq	%rcx, %rsi
	movq	%rax, %rdi
	call	aws_lc_fips_0_13_14_CBS_get_asn1@PLT
	.loc 1 221 54
	testl	%eax, %eax
	jne	.L32
.L31:
	.loc 1 223 5
	leaq	.LC0(%rip), %rax
	movl	$223, %r8d
	movq	%rax, %rcx
	movl	$104, %edx
	movl	$0, %esi
	movl	$19, %edi
	call	aws_lc_fips_0_13_14_ERR_put_error@PLT
	.loc 1 224 12
	movl	$0, %eax
	jmp	.L54
.L32:
	.loc 1 228 8
	leaq	kPBKDF2(%rip), %rcx
	leaq	-176(%rbp), %rax
	movl	$9, %edx
	movq	%rcx, %rsi
	movq	%rax, %rdi
	call	aws_lc_fips_0_13_14_CBS_mem_equal@PLT
	.loc 1 228 6 discriminator 1
	testl	%eax, %eax
	jne	.L34
	.loc 1 229 5
	leaq	.LC0(%rip), %rax
	movl	$229, %r8d
	movq	%rax, %rcx
	movl	$128, %edx
	movl	$0, %esi
	movl	$19, %edi
	call	aws_lc_fips_0_13_14_ERR_put_error@PLT
	.loc 1 230 12
	movl	$0, %eax
	jmp	.L54
.L34:
	.loc 1 234 30
	leaq	-144(%rbp), %rax
	movq	%rax, %rdi
	call	cbs_to_cipher
	movq	%rax, -216(%rbp)
	.loc 1 235 6
	cmpq	$0, -216(%rbp)
	jne	.L35
	.loc 1 236 5
	leaq	.LC0(%rip), %rax
	movl	$236, %r8d
	movq	%rax, %rcx
	movl	$127, %edx
	movl	$0, %esi
	movl	$19, %edi
	call	aws_lc_fips_0_13_14_ERR_put_error@PLT
	.loc 1 237 12
	movl	$0, %eax
	jmp	.L54
.L35:
	.loc 1 243 8
	leaq	-128(%rbp), %rcx
	leaq	-192(%rbp), %rax
	movl	$536870928, %edx
	movq	%rcx, %rsi
	movq	%rax, %rdi
	call	aws_lc_fips_0_13_14_CBS_get_asn1@PLT
	.loc 1 243 6 discriminator 1
	testl	%eax, %eax
	je	.L36
	.loc 1 244 7
	leaq	-192(%rbp), %rax
	movq	%rax, %rdi
	call	aws_lc_fips_0_13_14_CBS_len@PLT
	.loc 1 243 62 discriminator 2
	testq	%rax, %rax
	jne	.L36
	.loc 1 245 8
	leaq	-112(%rbp), %rcx
	leaq	-128(%rbp), %rax
	movl	$4, %edx
	movq	%rcx, %rsi
	movq	%rax, %rdi
	call	aws_lc_fips_0_13_14_CBS_get_asn1@PLT
	.loc 1 244 26
	testl	%eax, %eax
	je	.L36
	.loc 1 246 8
	leaq	-232(%rbp), %rdx
	leaq	-128(%rbp), %rax
	movq	%rdx, %rsi
	movq	%rax, %rdi
	call	aws_lc_fips_0_13_14_CBS_get_asn1_uint64@PLT
	.loc 1 245 66
	testl	%eax, %eax
	jne	.L37
.L36:
	.loc 1 247 5
	leaq	.LC0(%rip), %rax
	movl	$247, %r8d
	movq	%rax, %rcx
	movl	$104, %edx
	movl	$0, %esi
	movl	$19, %edi
	call	aws_lc_fips_0_13_14_ERR_put_error@PLT
	.loc 1 248 12
	movl	$0, %eax
	jmp	.L54
.L37:
	.loc 1 251 8
	movq	-232(%rbp), %rax
	movq	%rax, %rdi
	call	aws_lc_fips_0_13_14_pkcs12_iterations_acceptable@PLT
	.loc 1 251 6 discriminator 1
	testl	%eax, %eax
	jne	.L38
	.loc 1 252 5
	leaq	.LC0(%rip), %rax
	movl	$252, %r8d
	movq	%rax, %rcx
	movl	$129, %edx
	movl	$0, %esi
	movl	$19, %edi
	call	aws_lc_fips_0_13_14_ERR_put_error@PLT
	.loc 1 253 12
	movl	$0, %eax
	jmp	.L54
.L38:
	.loc 1 258 7
	leaq	-128(%rbp), %rax
	movl	$2, %esi
	movq	%rax, %rdi
	call	aws_lc_fips_0_13_14_CBS_peek_asn1_tag@PLT
	.loc 1 258 6 discriminator 1
	testl	%eax, %eax
	je	.L39
.LBB5:
	.loc 1 260 10
	leaq	-64(%rbp), %rdx
	leaq	-128(%rbp), %rax
	movq	%rdx, %rsi
	movq	%rax, %rdi
	call	aws_lc_fips_0_13_14_CBS_get_asn1_uint64@PLT
	.loc 1 260 8 discriminator 1
	testl	%eax, %eax
	jne	.L40
	.loc 1 261 7
	leaq	.LC0(%rip), %rax
	movl	$261, %r8d
	movq	%rax, %rcx
	movl	$104, %edx
	movl	$0, %esi
	movl	$19, %edi
	call	aws_lc_fips_0_13_14_ERR_put_error@PLT
	.loc 1 262 14
	movl	$0, %eax
	jmp	.L54
.L40:
	.loc 1 265 20
	movq	-216(%rbp), %rax
	movq	%rax, %rdi
	call	aws_lc_fips_0_13_14_EVP_CIPHER_key_length@PLT
	.loc 1 265 20 is_stmt 0 discriminator 1
	movl	%eax, %edx
	.loc 1 265 17 is_stmt 1 discriminator 1
	movq	-64(%rbp), %rax
	.loc 1 265 8 discriminator 1
	cmpq	%rax, %rdx
	je	.L39
	.loc 1 266 7
	leaq	.LC0(%rip), %rax
	movl	$266, %r8d
	movq	%rax, %rcx
	movl	$125, %edx
	movl	$0, %esi
	movl	$19, %edi
	call	aws_lc_fips_0_13_14_ERR_put_error@PLT
	.loc 1 267 14
	movl	$0, %eax
	jmp	.L54
.L39:
.LBE5:
	.loc 1 271 22
	call	aws_lc_fips_0_13_14_EVP_sha1@PLT
	movq	%rax, -224(%rbp)
	.loc 1 272 7
	leaq	-128(%rbp), %rax
	movq	%rax, %rdi
	call	aws_lc_fips_0_13_14_CBS_len@PLT
	.loc 1 272 6 discriminator 1
	testq	%rax, %rax
	je	.L43
.LBB6:
	.loc 1 274 10
	leaq	-96(%rbp), %rcx
	leaq	-128(%rbp), %rax
	movl	$536870928, %edx
	movq	%rcx, %rsi
	movq	%rax, %rdi
	call	aws_lc_fips_0_13_14_CBS_get_asn1@PLT
	.loc 1 274 8 discriminator 1
	testl	%eax, %eax
	je	.L44
	.loc 1 275 10
	leaq	-80(%rbp), %rcx
	leaq	-96(%rbp), %rax
	movl	$6, %edx
	movq	%rcx, %rsi
	movq	%rax, %rdi
	call	aws_lc_fips_0_13_14_CBS_get_asn1@PLT
	.loc 1 274 67 discriminator 2
	testl	%eax, %eax
	je	.L44
	.loc 1 276 9
	leaq	-128(%rbp), %rax
	movq	%rax, %rdi
	call	aws_lc_fips_0_13_14_CBS_len@PLT
	.loc 1 275 55
	testq	%rax, %rax
	je	.L45
.L44:
	.loc 1 277 7
	leaq	.LC0(%rip), %rax
	movl	$277, %r8d
	movq	%rax, %rcx
	movl	$104, %edx
	movl	$0, %esi
	movl	$19, %edi
	call	aws_lc_fips_0_13_14_ERR_put_error@PLT
	.loc 1 278 14
	movl	$0, %eax
	jmp	.L54
.L45:
	.loc 1 281 9
	leaq	kHMACWithSHA1(%rip), %rcx
	leaq	-80(%rbp), %rax
	movl	$8, %edx
	movq	%rcx, %rsi
	movq	%rax, %rdi
	call	aws_lc_fips_0_13_14_CBS_mem_equal@PLT
	.loc 1 281 8 discriminator 1
	testl	%eax, %eax
	je	.L47
	.loc 1 284 12
	call	aws_lc_fips_0_13_14_EVP_sha1@PLT
	movq	%rax, -224(%rbp)
	jmp	.L48
.L47:
	.loc 1 285 16
	leaq	kHMACWithSHA256(%rip), %rcx
	leaq	-80(%rbp), %rax
	movl	$8, %edx
	movq	%rcx, %rsi
	movq	%rax, %rdi
	call	aws_lc_fips_0_13_14_CBS_mem_equal@PLT
	.loc 1 285 15 discriminator 1
	testl	%eax, %eax
	je	.L49
	.loc 1 286 12
	call	aws_lc_fips_0_13_14_EVP_sha256@PLT
	movq	%rax, -224(%rbp)
	jmp	.L48
.L49:
	.loc 1 288 7
	leaq	.LC0(%rip), %rax
	movl	$288, %r8d
	movq	%rax, %rcx
	movl	$130, %edx
	movl	$0, %esi
	movl	$19, %edi
	call	aws_lc_fips_0_13_14_ERR_put_error@PLT
	.loc 1 289 14
	movl	$0, %eax
	jmp	.L54
.L48:
	.loc 1 294 10
	leaq	-64(%rbp), %rcx
	leaq	-96(%rbp), %rax
	movl	$5, %edx
	movq	%rcx, %rsi
	movq	%rax, %rdi
	call	aws_lc_fips_0_13_14_CBS_get_asn1@PLT
	.loc 1 294 8 discriminator 1
	testl	%eax, %eax
	je	.L50
	.loc 1 295 9
	leaq	-64(%rbp), %rax
	movq	%rax, %rdi
	call	aws_lc_fips_0_13_14_CBS_len@PLT
	.loc 1 294 54 discriminator 2
	testq	%rax, %rax
	jne	.L50
	.loc 1 296 9
	leaq	-96(%rbp), %rax
	movq	%rax, %rdi
	call	aws_lc_fips_0_13_14_CBS_len@PLT
	.loc 1 295 29
	testq	%rax, %rax
	je	.L43
.L50:
	.loc 1 297 7
	leaq	.LC0(%rip), %rax
	movl	$297, %r8d
	movq	%rax, %rcx
	movl	$104, %edx
	movl	$0, %esi
	movl	$19, %edi
	call	aws_lc_fips_0_13_14_ERR_put_error@PLT
	.loc 1 298 14
	movl	$0, %eax
	jmp	.L54
.L43:
.LBE6:
	.loc 1 307 8
	leaq	-64(%rbp), %rcx
	leaq	-160(%rbp), %rax
	movl	$4, %edx
	movq	%rcx, %rsi
	movq	%rax, %rdi
	call	aws_lc_fips_0_13_14_CBS_get_asn1@PLT
	.loc 1 307 6 discriminator 1
	testl	%eax, %eax
	je	.L52
	.loc 1 308 7
	leaq	-160(%rbp), %rax
	movq	%rax, %rdi
	call	aws_lc_fips_0_13_14_CBS_len@PLT
	.loc 1 307 61 discriminator 2
	testq	%rax, %rax
	je	.L53
.L52:
	.loc 1 309 5
	leaq	.LC0(%rip), %rax
	movl	$309, %r8d
	movq	%rax, %rcx
	movl	$130, %edx
	movl	$0, %esi
	movl	$19, %edi
	call	aws_lc_fips_0_13_14_ERR_put_error@PLT
	.loc 1 310 12
	movl	$0, %eax
	jmp	.L54
.L53:
	.loc 1 313 10
	leaq	-64(%rbp), %rax
	movq	%rax, %rdi
	call	aws_lc_fips_0_13_14_CBS_len@PLT
	movq	%rax, %r13
	.loc 1 313 10 is_stmt 0 discriminator 1
	leaq	-64(%rbp), %rax
	movq	%rax, %rdi
	call	aws_lc_fips_0_13_14_CBS_data@PLT
	movq	%rax, %r12
	.loc 1 313 10 discriminator 2
	leaq	-112(%rbp), %rax
	movq	%rax, %rdi
	call	aws_lc_fips_0_13_14_CBS_len@PLT
	movq	%rax, %rbx
	.loc 1 313 10 discriminator 3
	leaq	-112(%rbp), %rax
	movq	%rax, %rdi
	call	aws_lc_fips_0_13_14_CBS_data@PLT
	movq	%rax, %rcx
	.loc 1 313 10 discriminator 4
	movq	-232(%rbp), %rax
	movl	%eax, %r10d
	movq	-272(%rbp), %r8
	movq	-264(%rbp), %rdi
	movq	-224(%rbp), %rdx
	movq	-216(%rbp), %rsi
	movq	-256(%rbp), %rax
	subq	$8, %rsp
	pushq	$0
	pushq	%r13
	pushq	%r12
	pushq	%rbx
	pushq	%rcx
	movq	%r8, %r9
	movq	%rdi, %r8
	movl	%r10d, %ecx
	movq	%rax, %rdi
	call	pkcs5_pbe2_cipher_init
	addq	$48, %rsp
.L54:
	.loc 1 316 1 is_stmt 1
	movq	-40(%rbp), %rdx
	subq	%fs:40, %rdx
	je	.L55
	call	__stack_chk_fail@PLT
.L55:
	leaq	-24(%rbp), %rsp
	popq	%rbx
	popq	%r12
	popq	%r13
	popq	%rbp
	.cfi_def_cfa 7, 8
	ret
	.cfi_endproc
.LFE882:
	.size	aws_lc_fips_0_13_14_PKCS5_pbe2_decrypt_init, .-aws_lc_fips_0_13_14_PKCS5_pbe2_decrypt_init
	.text
.Letext0:
	.file 2 "/usr/lib/gcc/x86_64-linux-gnu/15/include/stddef.h"
	.file 3 "/usr/include/x86_64-linux-gnu/bits/types.h"
	.file 4 "/usr/include/x86_64-linux-gnu/bits/stdint-uintn.h"
	.file 5 "/home/jdn/.cargo/registry/src/index.crates.io-1949cf8c6b5b557f/aws-lc-fips-sys-0.13.14/aws-lc/include/openssl/base.h"
	.file 6 "/home/jdn/.cargo/registry/src/index.crates.io-1949cf8c6b5b557f/aws-lc-fips-sys-0.13.14/aws-lc/include/openssl/bytestring.h"
	.file 7 "/home/jdn/.cargo/registry/src/index.crates.io-1949cf8c6b5b557f/aws-lc-fips-sys-0.13.14/aws-lc/include/openssl/cipher.h"
	.file 8 "/home/jdn/.cargo/registry/src/index.crates.io-1949cf8c6b5b557f/aws-lc-fips-sys-0.13.14/aws-lc/crypto/pkcs8/internal.h"
	.file 9 "/home/jdn/.cargo/registry/src/index.crates.io-1949cf8c6b5b557f/aws-lc-fips-sys-0.13.14/aws-lc/include/openssl/digest.h"
	.file 10 "/home/jdn/.cargo/registry/src/index.crates.io-1949cf8c6b5b557f/aws-lc-fips-sys-0.13.14/aws-lc/include/openssl/rand.h"
	.file 11 "/home/jdn/.cargo/registry/src/index.crates.io-1949cf8c6b5b557f/aws-lc-fips-sys-0.13.14/aws-lc/include/openssl/evp.h"
	.file 12 "/home/jdn/.cargo/registry/src/index.crates.io-1949cf8c6b5b557f/aws-lc-fips-sys-0.13.14/aws-lc/include/openssl/mem.h"
	.file 13 "/home/jdn/.cargo/registry/src/index.crates.io-1949cf8c6b5b557f/aws-lc-fips-sys-0.13.14/aws-lc/include/openssl/err.h"
	.section	.note.GNU-stack,"",@progbits
	.section	.note.gnu.property,"a"
	.align 8
	.long	1f - 0f
	.long	4f - 1f
	.long	5
0:
	.string	"GNU"
1:
	.align 8
	.long	0xc0000002
	.long	3f - 2f
2:
	.long	0x3
3:
	.align 8
4:
