	.file	"forkunsafe.c"
	.text
.Ltext0:
	.file 0 "/mnt/HARDONE/NSI_Repos/tacvoice/gateway/target/debug/build/aws-lc-fips-sys-802b9ac702614b53/out/build/aws-lc/crypto" "/home/jdn/.cargo/registry/src/index.crates.io-1949cf8c6b5b557f/aws-lc-fips-sys-0.13.14/aws-lc/crypto/rand_extra/forkunsafe.c"
	.section	.bss.g_buffering_enabled,"aw",@nobits
	.align 4
	.type	g_buffering_enabled, @object
	.size	g_buffering_enabled, 4
g_buffering_enabled:
	.zero	4
	.section	.bss.g_lock,"aw",@nobits
	.align 32
	.type	g_lock, @object
	.size	g_lock, 56
g_lock:
	.zero	56
	.section	.text.aws_lc_fips_0_13_14_RAND_enable_fork_unsafe_buffering,"ax",@progbits
	.globl	aws_lc_fips_0_13_14_RAND_enable_fork_unsafe_buffering
	.type	aws_lc_fips_0_13_14_RAND_enable_fork_unsafe_buffering, @function
aws_lc_fips_0_13_14_RAND_enable_fork_unsafe_buffering:
.LFB146:
	.file 1 "/home/jdn/.cargo/registry/src/index.crates.io-1949cf8c6b5b557f/aws-lc-fips-sys-0.13.14/aws-lc/crypto/rand_extra/forkunsafe.c"
	.loc 1 29 48
	.cfi_startproc
	endbr64
	pushq	%rbp
	.cfi_def_cfa_offset 16
	.cfi_offset 6, -16
	movq	%rsp, %rbp
	.cfi_def_cfa_register 6
	subq	$16, %rsp
	movl	%edi, -4(%rbp)
	.loc 1 31 6
	cmpl	$-1, -4(%rbp)
	je	.L2
	.loc 1 32 5
	call	abort@PLT
.L2:
	.loc 1 35 3
	leaq	g_lock(%rip), %rax
	movq	%rax, %rdi
	call	aws_lc_fips_0_13_14_CRYPTO_STATIC_MUTEX_lock_write@PLT
	.loc 1 36 23
	movl	$1, g_buffering_enabled(%rip)
	.loc 1 37 3
	leaq	g_lock(%rip), %rax
	movq	%rax, %rdi
	call	aws_lc_fips_0_13_14_CRYPTO_STATIC_MUTEX_unlock_write@PLT
	.loc 1 38 1
	nop
	leave
	.cfi_def_cfa 7, 8
	ret
	.cfi_endproc
.LFE146:
	.size	aws_lc_fips_0_13_14_RAND_enable_fork_unsafe_buffering, .-aws_lc_fips_0_13_14_RAND_enable_fork_unsafe_buffering
	.section	.text.aws_lc_fips_0_13_14_rand_fork_unsafe_buffering_enabled,"ax",@progbits
	.globl	aws_lc_fips_0_13_14_rand_fork_unsafe_buffering_enabled
	.hidden	aws_lc_fips_0_13_14_rand_fork_unsafe_buffering_enabled
	.type	aws_lc_fips_0_13_14_rand_fork_unsafe_buffering_enabled, @function
aws_lc_fips_0_13_14_rand_fork_unsafe_buffering_enabled:
.LFB147:
	.loc 1 40 46
	.cfi_startproc
	endbr64
	pushq	%rbp
	.cfi_def_cfa_offset 16
	.cfi_offset 6, -16
	movq	%rsp, %rbp
	.cfi_def_cfa_register 6
	subq	$16, %rsp
	.loc 1 41 3
	leaq	g_lock(%rip), %rax
	movq	%rax, %rdi
	call	aws_lc_fips_0_13_14_CRYPTO_STATIC_MUTEX_lock_read@PLT
	.loc 1 42 13
	movl	g_buffering_enabled(%rip), %eax
	movl	%eax, -4(%rbp)
	.loc 1 43 3
	leaq	g_lock(%rip), %rax
	movq	%rax, %rdi
	call	aws_lc_fips_0_13_14_CRYPTO_STATIC_MUTEX_unlock_read@PLT
	.loc 1 44 10
	movl	-4(%rbp), %eax
	.loc 1 45 1
	leave
	.cfi_def_cfa 7, 8
	ret
	.cfi_endproc
.LFE147:
	.size	aws_lc_fips_0_13_14_rand_fork_unsafe_buffering_enabled, .-aws_lc_fips_0_13_14_rand_fork_unsafe_buffering_enabled
	.text
.Letext0:
	.file 2 "/usr/include/x86_64-linux-gnu/bits/struct_rwlock.h"
	.file 3 "/usr/include/x86_64-linux-gnu/bits/pthreadtypes.h"
	.file 4 "/home/jdn/.cargo/registry/src/index.crates.io-1949cf8c6b5b557f/aws-lc-fips-sys-0.13.14/aws-lc/crypto/rand_extra/../fipsmodule/rand/../../internal.h"
	.file 5 "/usr/include/pthread.h"
	.file 6 "/usr/include/stdlib.h"
	.section	.note.GNU-stack,"",@progbits
	.section	.note.gnu.property,"a"
	.align 8
	.long	1f - 0f
	.long	4f - 1f
	.long	5
0:
	.string	"GNU"
1:
	.align 8
	.long	0xc0000002
	.long	3f - 2f
2:
	.long	0x3
3:
	.align 8
4:
